SF:/home/jack/tools/rust/zwift-race-finder/src/bin/analyze_descriptions.rs
FN:78,_RNCNCNvCsjnQy2VFS3ke_20analyze_descriptions4main00B5_
FN:141,_RNCNCNvCsjnQy2VFS3ke_20analyze_descriptions4main0s_0B5_
FN:35,_RNCNvCsjnQy2VFS3ke_20analyze_descriptions12fetch_events0B3_
FN:71,_RNCNvCsjnQy2VFS3ke_20analyze_descriptions4main0B3_
FN:35,_RNvCsjnQy2VFS3ke_20analyze_descriptions12fetch_events
FN:46,_RNvCsjnQy2VFS3ke_20analyze_descriptions25extract_distance_patterns
FN:71,_RNvCsjnQy2VFS3ke_20analyze_descriptions4main
FN:78,_RNCNCNvCsaIQmDjCpdvT_20analyze_descriptions4main00B5_
FN:141,_RNCNCNvCsaIQmDjCpdvT_20analyze_descriptions4main0s_0B5_
FN:35,_RNCNvCsaIQmDjCpdvT_20analyze_descriptions12fetch_events0B3_
FN:71,_RNCNvCsaIQmDjCpdvT_20analyze_descriptions4main0B3_
FN:35,_RNvCsaIQmDjCpdvT_20analyze_descriptions12fetch_events
FN:46,_RNvCsaIQmDjCpdvT_20analyze_descriptions25extract_distance_patterns
FN:71,_RNvCsaIQmDjCpdvT_20analyze_descriptions4main
FNDA:0,_RNCNCNvCsjnQy2VFS3ke_20analyze_descriptions4main00B5_
FNDA:0,_RNCNCNvCsjnQy2VFS3ke_20analyze_descriptions4main0s_0B5_
FNDA:0,_RNCNvCsjnQy2VFS3ke_20analyze_descriptions12fetch_events0B3_
FNDA:0,_RNCNvCsjnQy2VFS3ke_20analyze_descriptions4main0B3_
FNDA:0,_RNvCsjnQy2VFS3ke_20analyze_descriptions12fetch_events
FNDA:0,_RNvCsjnQy2VFS3ke_20analyze_descriptions25extract_distance_patterns
FNDA:0,_RNvCsjnQy2VFS3ke_20analyze_descriptions4main
FNDA:0,_RNCNCNvCsaIQmDjCpdvT_20analyze_descriptions4main00B5_
FNDA:0,_RNCNCNvCsaIQmDjCpdvT_20analyze_descriptions4main0s_0B5_
FNDA:0,_RNCNvCsaIQmDjCpdvT_20analyze_descriptions12fetch_events0B3_
FNDA:0,_RNCNvCsaIQmDjCpdvT_20analyze_descriptions4main0B3_
FNDA:0,_RNvCsaIQmDjCpdvT_20analyze_descriptions12fetch_events
FNDA:0,_RNvCsaIQmDjCpdvT_20analyze_descriptions25extract_distance_patterns
FNDA:0,_RNvCsaIQmDjCpdvT_20analyze_descriptions4main
FNF:7
FNH:0
DA:35,0
DA:36,0
DA:37,0
DA:38,0
DA:39,0
DA:41,0
DA:42,0
DA:43,0
DA:44,0
DA:46,0
DA:47,0
DA:48,0
DA:49,0
DA:50,0
DA:51,0
DA:52,0
DA:53,0
DA:54,0
DA:55,0
DA:56,0
DA:57,0
DA:58,0
DA:60,0
DA:61,0
DA:62,0
DA:63,0
DA:64,0
DA:67,0
DA:68,0
DA:71,0
DA:72,0
DA:73,0
DA:74,0
DA:75,0
DA:76,0
DA:77,0
DA:78,0
DA:79,0
DA:80,0
DA:81,0
DA:82,0
DA:83,0
DA:84,0
DA:85,0
DA:86,0
DA:87,0
DA:88,0
DA:89,0
DA:90,0
DA:91,0
DA:92,0
DA:93,0
DA:94,0
DA:95,0
DA:96,0
DA:97,0
DA:98,0
DA:99,0
DA:100,0
DA:101,0
DA:102,0
DA:103,0
DA:104,0
DA:105,0
DA:106,0
DA:107,0
DA:108,0
DA:109,0
DA:110,0
DA:111,0
DA:112,0
DA:113,0
DA:114,0
DA:115,0
DA:116,0
DA:117,0
DA:118,0
DA:119,0
DA:120,0
DA:121,0
DA:122,0
DA:123,0
DA:124,0
DA:125,0
DA:126,0
DA:127,0
DA:128,0
DA:129,0
DA:130,0
DA:131,0
DA:132,0
DA:133,0
DA:134,0
DA:135,0
DA:136,0
DA:137,0
DA:138,0
DA:139,0
DA:140,0
DA:141,0
DA:142,0
DA:143,0
DA:144,0
DA:145,0
DA:146,0
DA:147,0
DA:148,0
DA:149,0
DA:150,0
DA:151,0
DA:152,0
DA:153,0
DA:154,0
DA:155,0
DA:156,0
DA:157,0
DA:158,0
BRF:0
BRH:0
LF:186
LH:0
end_of_record
SF:/home/jack/tools/rust/zwift-race-finder/src/bin/debug_tags.rs
FN:53,_RNCNvCs32Nk2R4wwfL_10debug_tags4main0B3_
FN:20,_RNvCs32Nk2R4wwfL_10debug_tags4main
FN:53,_RNCNvCsideEh6uvdTt_10debug_tags4main0B3_
FN:20,_RNvCsideEh6uvdTt_10debug_tags4main
FNDA:0,_RNCNvCs32Nk2R4wwfL_10debug_tags4main0B3_
FNDA:0,_RNvCs32Nk2R4wwfL_10debug_tags4main
FNDA:0,_RNCNvCsideEh6uvdTt_10debug_tags4main0B3_
FNDA:0,_RNvCsideEh6uvdTt_10debug_tags4main
FNF:2
FNH:0
DA:20,0
DA:22,0
DA:23,0
DA:26,0
DA:27,0
DA:29,0
DA:30,0
DA:31,0
DA:32,0
DA:34,0
DA:35,0
DA:36,0
DA:37,0
DA:38,0
DA:39,0
DA:40,0
DA:41,0
DA:42,0
DA:43,0
DA:44,0
DA:45,0
DA:47,0
DA:51,0
DA:52,0
DA:53,0
DA:55,0
DA:56,0
DA:57,0
DA:59,0
DA:60,0
DA:61,0
DA:62,0
DA:63,0
DA:64,0
DA:68,0
DA:69,0
DA:70,0
DA:71,0
DA:72,0
DA:73,0
DA:74,0
DA:77,0
DA:78,0
DA:79,0
DA:80,0
DA:81,0
DA:82,0
DA:85,0
DA:86,0
BRF:0
BRH:0
LF:50
LH:0
end_of_record
SF:/home/jack/tools/rust/zwift-race-finder/src/config.rs
FN:232,_RNvMs4_NtCs1kDST8A3VsF_17zwift_race_finder6configNtB5_6Config17get_download_path
FN:180,_RNvMs4_NtCs1kDST8A3VsF_17zwift_race_finder6configNtB5_6Config19apply_env_overrides
FN:264,_RNvMs4_NtCs1kDST8A3VsF_17zwift_race_finder6configNtB5_6Config20get_user_config_path
FN:137,_RNvMs4_NtCs1kDST8A3VsF_17zwift_race_finder6configNtB5_6Config4load
FN:246,_RNvMs4_NtCs1kDST8A3VsF_17zwift_race_finder6configNtB5_6Config4save
FN:275,_RNvMs5_NtCs1kDST8A3VsF_17zwift_race_finder6configNtB5_7Secrets4load
FN:329,_RNvMs7_NtCs1kDST8A3VsF_17zwift_race_finder6configNtB5_10FullConfig16default_category
FN:347,_RNvMs7_NtCs1kDST8A3VsF_17zwift_race_finder6configNtB5_10FullConfig16default_height_m
FN:335,_RNvMs7_NtCs1kDST8A3VsF_17zwift_race_finder6configNtB5_10FullConfig16windows_username
FN:353,_RNvMs7_NtCs1kDST8A3VsF_17zwift_race_finder6configNtB5_10FullConfig17default_ftp_watts
FN:341,_RNvMs7_NtCs1kDST8A3VsF_17zwift_race_finder6configNtB5_10FullConfig17default_weight_kg
FN:324,_RNvMs7_NtCs1kDST8A3VsF_17zwift_race_finder6configNtB5_10FullConfig19default_zwift_score
FN:313,_RNvMs7_NtCs1kDST8A3VsF_17zwift_race_finder6configNtB5_10FullConfig21zwiftpower_profile_id
FN:319,_RNvMs7_NtCs1kDST8A3VsF_17zwift_race_finder6configNtB5_10FullConfig21zwiftpower_session_id
FN:303,_RNvMs7_NtCs1kDST8A3VsF_17zwift_race_finder6configNtB5_10FullConfig4load
FN:77,_RNvXNtCs1kDST8A3VsF_17zwift_race_finder6configNtB2_7SecretsNtNtCs9sjCchOt1K7_4core7default7Default7default
FN:97,_RNvXs0_NtCs1kDST8A3VsF_17zwift_race_finder6configNtB5_8DefaultsNtNtCs9sjCchOt1K7_4core7default7Default7default
FN:109,_RNvXs1_NtCs1kDST8A3VsF_17zwift_race_finder6configNtB5_12ImportConfigNtNtCs9sjCchOt1K7_4core7default7Default7default
FN:117,_RNvXs2_NtCs1kDST8A3VsF_17zwift_race_finder6configNtB5_11PreferencesNtNtCs9sjCchOt1K7_4core7default7Default7default
FN:127,_RNvXs3_NtCs1kDST8A3VsF_17zwift_race_finder6configNtB5_7DisplayNtNtCs9sjCchOt1K7_4core7default7Default7default
FN:293,_RNvXs6_NtCs1kDST8A3VsF_17zwift_race_finder6configNtB5_10FullConfigNtNtCs9sjCchOt1K7_4core7default7Default7default
FN:86,_RNvXs_NtCs1kDST8A3VsF_17zwift_race_finder6configNtB4_6ConfigNtNtCs9sjCchOt1K7_4core7default7Default7default
FN:234,_RNCNvMs4_NtCs1kDST8A3VsF_17zwift_race_finder6configNtB7_6Config17get_download_path0B9_
FN:240,_RNCNvMs4_NtCs1kDST8A3VsF_17zwift_race_finder6configNtB7_6Config17get_download_paths0_0B9_
FN:235,_RNCNvMs4_NtCs1kDST8A3VsF_17zwift_race_finder6configNtB7_6Config17get_download_paths_0B9_
FN:265,_RNCNvMs4_NtCs1kDST8A3VsF_17zwift_race_finder6configNtB7_6Config20get_user_config_path0B9_
FN:148,_RNCNvMs4_NtCs1kDST8A3VsF_17zwift_race_finder6configNtB7_6Config4load0B9_
FN:155,_RNCNvMs4_NtCs1kDST8A3VsF_17zwift_race_finder6configNtB7_6Config4loads_0B9_
FN:248,_RNCNvMs4_NtCs1kDST8A3VsF_17zwift_race_finder6configNtB7_6Config4save0B9_
FN:234,_RNCNvMs4_NtCsdY1tzCMfrk2_17zwift_race_finder6configNtB7_6Config17get_download_path0B9_
FN:240,_RNCNvMs4_NtCsdY1tzCMfrk2_17zwift_race_finder6configNtB7_6Config17get_download_paths0_0B9_
FN:235,_RNCNvMs4_NtCsdY1tzCMfrk2_17zwift_race_finder6configNtB7_6Config17get_download_paths_0B9_
FN:265,_RNCNvMs4_NtCsdY1tzCMfrk2_17zwift_race_finder6configNtB7_6Config20get_user_config_path0B9_
FN:148,_RNCNvMs4_NtCsdY1tzCMfrk2_17zwift_race_finder6configNtB7_6Config4load0B9_
FN:155,_RNCNvMs4_NtCsdY1tzCMfrk2_17zwift_race_finder6configNtB7_6Config4loads_0B9_
FN:248,_RNCNvMs4_NtCsdY1tzCMfrk2_17zwift_race_finder6configNtB7_6Config4save0B9_
FN:232,_RNvMs4_NtCsdY1tzCMfrk2_17zwift_race_finder6configNtB5_6Config17get_download_path
FN:180,_RNvMs4_NtCsdY1tzCMfrk2_17zwift_race_finder6configNtB5_6Config19apply_env_overrides
FN:264,_RNvMs4_NtCsdY1tzCMfrk2_17zwift_race_finder6configNtB5_6Config20get_user_config_path
FN:137,_RNvMs4_NtCsdY1tzCMfrk2_17zwift_race_finder6configNtB5_6Config4load
FN:246,_RNvMs4_NtCsdY1tzCMfrk2_17zwift_race_finder6configNtB5_6Config4save
FN:275,_RNvMs5_NtCsdY1tzCMfrk2_17zwift_race_finder6configNtB5_7Secrets4load
FN:329,_RNvMs7_NtCsdY1tzCMfrk2_17zwift_race_finder6configNtB5_10FullConfig16default_category
FN:347,_RNvMs7_NtCsdY1tzCMfrk2_17zwift_race_finder6configNtB5_10FullConfig16default_height_m
FN:335,_RNvMs7_NtCsdY1tzCMfrk2_17zwift_race_finder6configNtB5_10FullConfig16windows_username
FN:353,_RNvMs7_NtCsdY1tzCMfrk2_17zwift_race_finder6configNtB5_10FullConfig17default_ftp_watts
FN:341,_RNvMs7_NtCsdY1tzCMfrk2_17zwift_race_finder6configNtB5_10FullConfig17default_weight_kg
FN:324,_RNvMs7_NtCsdY1tzCMfrk2_17zwift_race_finder6configNtB5_10FullConfig19default_zwift_score
FN:313,_RNvMs7_NtCsdY1tzCMfrk2_17zwift_race_finder6configNtB5_10FullConfig21zwiftpower_profile_id
FN:319,_RNvMs7_NtCsdY1tzCMfrk2_17zwift_race_finder6configNtB5_10FullConfig21zwiftpower_session_id
FN:303,_RNvMs7_NtCsdY1tzCMfrk2_17zwift_race_finder6configNtB5_10FullConfig4load
FN:77,_RNvXNtCsdY1tzCMfrk2_17zwift_race_finder6configNtB2_7SecretsNtNtCs9sjCchOt1K7_4core7default7Default7default
FN:97,_RNvXs0_NtCsdY1tzCMfrk2_17zwift_race_finder6configNtB5_8DefaultsNtNtCs9sjCchOt1K7_4core7default7Default7default
FN:109,_RNvXs1_NtCsdY1tzCMfrk2_17zwift_race_finder6configNtB5_12ImportConfigNtNtCs9sjCchOt1K7_4core7default7Default7default
FN:117,_RNvXs2_NtCsdY1tzCMfrk2_17zwift_race_finder6configNtB5_11PreferencesNtNtCs9sjCchOt1K7_4core7default7Default7default
FN:127,_RNvXs3_NtCsdY1tzCMfrk2_17zwift_race_finder6configNtB5_7DisplayNtNtCs9sjCchOt1K7_4core7default7Default7default
FN:293,_RNvXs6_NtCsdY1tzCMfrk2_17zwift_race_finder6configNtB5_10FullConfigNtNtCs9sjCchOt1K7_4core7default7Default7default
FN:86,_RNvXs_NtCsdY1tzCMfrk2_17zwift_race_finder6configNtB4_6ConfigNtNtCs9sjCchOt1K7_4core7default7Default7default
FN:148,_RNCNvMs4_NtCs6l7Ma75WKx0_17zwift_race_finder6configNtB7_6Config4load0B9_
FN:155,_RNCNvMs4_NtCs6l7Ma75WKx0_17zwift_race_finder6configNtB7_6Config4loads_0B9_
FN:180,_RNvMs4_NtCs6l7Ma75WKx0_17zwift_race_finder6configNtB5_6Config19apply_env_overrides
FN:137,_RNvMs4_NtCs6l7Ma75WKx0_17zwift_race_finder6configNtB5_6Config4load
FN:275,_RNvMs5_NtCs6l7Ma75WKx0_17zwift_race_finder6configNtB5_7Secrets4load
FN:329,_RNvMs7_NtCs6l7Ma75WKx0_17zwift_race_finder6configNtB5_10FullConfig16default_category
FN:324,_RNvMs7_NtCs6l7Ma75WKx0_17zwift_race_finder6configNtB5_10FullConfig19default_zwift_score
FN:303,_RNvMs7_NtCs6l7Ma75WKx0_17zwift_race_finder6configNtB5_10FullConfig4load
FN:77,_RNvXNtCs6l7Ma75WKx0_17zwift_race_finder6configNtB2_7SecretsNtNtCs9sjCchOt1K7_4core7default7Default7default
FN:97,_RNvXs0_NtCs6l7Ma75WKx0_17zwift_race_finder6configNtB5_8DefaultsNtNtCs9sjCchOt1K7_4core7default7Default7default
FN:109,_RNvXs1_NtCs6l7Ma75WKx0_17zwift_race_finder6configNtB5_12ImportConfigNtNtCs9sjCchOt1K7_4core7default7Default7default
FN:117,_RNvXs2_NtCs6l7Ma75WKx0_17zwift_race_finder6configNtB5_11PreferencesNtNtCs9sjCchOt1K7_4core7default7Default7default
FN:127,_RNvXs3_NtCs6l7Ma75WKx0_17zwift_race_finder6configNtB5_7DisplayNtNtCs9sjCchOt1K7_4core7default7Default7default
FN:293,_RNvXs6_NtCs6l7Ma75WKx0_17zwift_race_finder6configNtB5_10FullConfigNtNtCs9sjCchOt1K7_4core7default7Default7default
FN:86,_RNvXs_NtCs6l7Ma75WKx0_17zwift_race_finder6configNtB4_6ConfigNtNtCs9sjCchOt1K7_4core7default7Default7default
FN:234,_RNCNvMs4_NtCs6l7Ma75WKx0_17zwift_race_finder6configNtB7_6Config17get_download_path0B9_
FN:240,_RNCNvMs4_NtCs6l7Ma75WKx0_17zwift_race_finder6configNtB7_6Config17get_download_paths0_0B9_
FN:235,_RNCNvMs4_NtCs6l7Ma75WKx0_17zwift_race_finder6configNtB7_6Config17get_download_paths_0B9_
FN:265,_RNCNvMs4_NtCs6l7Ma75WKx0_17zwift_race_finder6configNtB7_6Config20get_user_config_path0B9_
FN:248,_RNCNvMs4_NtCs6l7Ma75WKx0_17zwift_race_finder6configNtB7_6Config4save0B9_
FN:232,_RNvMs4_NtCs6l7Ma75WKx0_17zwift_race_finder6configNtB5_6Config17get_download_path
FN:264,_RNvMs4_NtCs6l7Ma75WKx0_17zwift_race_finder6configNtB5_6Config20get_user_config_path
FN:246,_RNvMs4_NtCs6l7Ma75WKx0_17zwift_race_finder6configNtB5_6Config4save
FN:347,_RNvMs7_NtCs6l7Ma75WKx0_17zwift_race_finder6configNtB5_10FullConfig16default_height_m
FN:335,_RNvMs7_NtCs6l7Ma75WKx0_17zwift_race_finder6configNtB5_10FullConfig16windows_username
FN:353,_RNvMs7_NtCs6l7Ma75WKx0_17zwift_race_finder6configNtB5_10FullConfig17default_ftp_watts
FN:341,_RNvMs7_NtCs6l7Ma75WKx0_17zwift_race_finder6configNtB5_10FullConfig17default_weight_kg
FN:313,_RNvMs7_NtCs6l7Ma75WKx0_17zwift_race_finder6configNtB5_10FullConfig21zwiftpower_profile_id
FN:319,_RNvMs7_NtCs6l7Ma75WKx0_17zwift_race_finder6configNtB5_10FullConfig21zwiftpower_session_id
FN:234,_RNCNvMs4_NtCs2felTZli3Ur_17zwift_race_finder6configNtB7_6Config17get_download_path0B9_
FN:240,_RNCNvMs4_NtCs2felTZli3Ur_17zwift_race_finder6configNtB7_6Config17get_download_paths0_0B9_
FN:235,_RNCNvMs4_NtCs2felTZli3Ur_17zwift_race_finder6configNtB7_6Config17get_download_paths_0B9_
FN:265,_RNCNvMs4_NtCs2felTZli3Ur_17zwift_race_finder6configNtB7_6Config20get_user_config_path0B9_
FN:148,_RNCNvMs4_NtCs2felTZli3Ur_17zwift_race_finder6configNtB7_6Config4load0B9_
FN:155,_RNCNvMs4_NtCs2felTZli3Ur_17zwift_race_finder6configNtB7_6Config4loads_0B9_
FN:248,_RNCNvMs4_NtCs2felTZli3Ur_17zwift_race_finder6configNtB7_6Config4save0B9_
FN:232,_RNvMs4_NtCs2felTZli3Ur_17zwift_race_finder6configNtB5_6Config17get_download_path
FN:180,_RNvMs4_NtCs2felTZli3Ur_17zwift_race_finder6configNtB5_6Config19apply_env_overrides
FN:264,_RNvMs4_NtCs2felTZli3Ur_17zwift_race_finder6configNtB5_6Config20get_user_config_path
FN:137,_RNvMs4_NtCs2felTZli3Ur_17zwift_race_finder6configNtB5_6Config4load
FN:246,_RNvMs4_NtCs2felTZli3Ur_17zwift_race_finder6configNtB5_6Config4save
FN:275,_RNvMs5_NtCs2felTZli3Ur_17zwift_race_finder6configNtB5_7Secrets4load
FN:329,_RNvMs7_NtCs2felTZli3Ur_17zwift_race_finder6configNtB5_10FullConfig16default_category
FN:347,_RNvMs7_NtCs2felTZli3Ur_17zwift_race_finder6configNtB5_10FullConfig16default_height_m
FN:335,_RNvMs7_NtCs2felTZli3Ur_17zwift_race_finder6configNtB5_10FullConfig16windows_username
FN:353,_RNvMs7_NtCs2felTZli3Ur_17zwift_race_finder6configNtB5_10FullConfig17default_ftp_watts
FN:341,_RNvMs7_NtCs2felTZli3Ur_17zwift_race_finder6configNtB5_10FullConfig17default_weight_kg
FN:324,_RNvMs7_NtCs2felTZli3Ur_17zwift_race_finder6configNtB5_10FullConfig19default_zwift_score
FN:313,_RNvMs7_NtCs2felTZli3Ur_17zwift_race_finder6configNtB5_10FullConfig21zwiftpower_profile_id
FN:319,_RNvMs7_NtCs2felTZli3Ur_17zwift_race_finder6configNtB5_10FullConfig21zwiftpower_session_id
FN:303,_RNvMs7_NtCs2felTZli3Ur_17zwift_race_finder6configNtB5_10FullConfig4load
FN:77,_RNvXNtCs2felTZli3Ur_17zwift_race_finder6configNtB2_7SecretsNtNtCs9sjCchOt1K7_4core7default7Default7default
FN:97,_RNvXs0_NtCs2felTZli3Ur_17zwift_race_finder6configNtB5_8DefaultsNtNtCs9sjCchOt1K7_4core7default7Default7default
FN:109,_RNvXs1_NtCs2felTZli3Ur_17zwift_race_finder6configNtB5_12ImportConfigNtNtCs9sjCchOt1K7_4core7default7Default7default
FN:117,_RNvXs2_NtCs2felTZli3Ur_17zwift_race_finder6configNtB5_11PreferencesNtNtCs9sjCchOt1K7_4core7default7Default7default
FN:127,_RNvXs3_NtCs2felTZli3Ur_17zwift_race_finder6configNtB5_7DisplayNtNtCs9sjCchOt1K7_4core7default7Default7default
FN:293,_RNvXs6_NtCs2felTZli3Ur_17zwift_race_finder6configNtB5_10FullConfigNtNtCs9sjCchOt1K7_4core7default7Default7default
FN:86,_RNvXs_NtCs2felTZli3Ur_17zwift_race_finder6configNtB4_6ConfigNtNtCs9sjCchOt1K7_4core7default7Default7default
FNDA:0,_RNvMs4_NtCs1kDST8A3VsF_17zwift_race_finder6configNtB5_6Config17get_download_path
FNDA:2,_RNvMs4_NtCs1kDST8A3VsF_17zwift_race_finder6configNtB5_6Config19apply_env_overrides
FNDA:0,_RNvMs4_NtCs1kDST8A3VsF_17zwift_race_finder6configNtB5_6Config20get_user_config_path
FNDA:2,_RNvMs4_NtCs1kDST8A3VsF_17zwift_race_finder6configNtB5_6Config4load
FNDA:0,_RNvMs4_NtCs1kDST8A3VsF_17zwift_race_finder6configNtB5_6Config4save
FNDA:0,_RNvMs5_NtCs1kDST8A3VsF_17zwift_race_finder6configNtB5_7Secrets4load
FNDA:0,_RNvMs7_NtCs1kDST8A3VsF_17zwift_race_finder6configNtB5_10FullConfig16default_category
FNDA:0,_RNvMs7_NtCs1kDST8A3VsF_17zwift_race_finder6configNtB5_10FullConfig16default_height_m
FNDA:0,_RNvMs7_NtCs1kDST8A3VsF_17zwift_race_finder6configNtB5_10FullConfig16windows_username
FNDA:0,_RNvMs7_NtCs1kDST8A3VsF_17zwift_race_finder6configNtB5_10FullConfig17default_ftp_watts
FNDA:0,_RNvMs7_NtCs1kDST8A3VsF_17zwift_race_finder6configNtB5_10FullConfig17default_weight_kg
FNDA:0,_RNvMs7_NtCs1kDST8A3VsF_17zwift_race_finder6configNtB5_10FullConfig19default_zwift_score
FNDA:0,_RNvMs7_NtCs1kDST8A3VsF_17zwift_race_finder6configNtB5_10FullConfig21zwiftpower_profile_id
FNDA:0,_RNvMs7_NtCs1kDST8A3VsF_17zwift_race_finder6configNtB5_10FullConfig21zwiftpower_session_id
FNDA:0,_RNvMs7_NtCs1kDST8A3VsF_17zwift_race_finder6configNtB5_10FullConfig4load
FNDA:0,_RNvXNtCs1kDST8A3VsF_17zwift_race_finder6configNtB2_7SecretsNtNtCs9sjCchOt1K7_4core7default7Default7default
FNDA:4,_RNvXs0_NtCs1kDST8A3VsF_17zwift_race_finder6configNtB5_8DefaultsNtNtCs9sjCchOt1K7_4core7default7Default7default
FNDA:7,_RNvXs1_NtCs1kDST8A3VsF_17zwift_race_finder6configNtB5_12ImportConfigNtNtCs9sjCchOt1K7_4core7default7Default7default
FNDA:5,_RNvXs2_NtCs1kDST8A3VsF_17zwift_race_finder6configNtB5_11PreferencesNtNtCs9sjCchOt1K7_4core7default7Default7default
FNDA:6,_RNvXs3_NtCs1kDST8A3VsF_17zwift_race_finder6configNtB5_7DisplayNtNtCs9sjCchOt1K7_4core7default7Default7default
FNDA:0,_RNvXs6_NtCs1kDST8A3VsF_17zwift_race_finder6configNtB5_10FullConfigNtNtCs9sjCchOt1K7_4core7default7Default7default
FNDA:3,_RNvXs_NtCs1kDST8A3VsF_17zwift_race_finder6configNtB4_6ConfigNtNtCs9sjCchOt1K7_4core7default7Default7default
FNDA:0,_RNCNvMs4_NtCs1kDST8A3VsF_17zwift_race_finder6configNtB7_6Config17get_download_path0B9_
FNDA:0,_RNCNvMs4_NtCs1kDST8A3VsF_17zwift_race_finder6configNtB7_6Config17get_download_paths0_0B9_
FNDA:0,_RNCNvMs4_NtCs1kDST8A3VsF_17zwift_race_finder6configNtB7_6Config17get_download_paths_0B9_
FNDA:0,_RNCNvMs4_NtCs1kDST8A3VsF_17zwift_race_finder6configNtB7_6Config20get_user_config_path0B9_
FNDA:2,_RNCNvMs4_NtCs1kDST8A3VsF_17zwift_race_finder6configNtB7_6Config4load0B9_
FNDA:2,_RNCNvMs4_NtCs1kDST8A3VsF_17zwift_race_finder6configNtB7_6Config4loads_0B9_
FNDA:0,_RNCNvMs4_NtCs1kDST8A3VsF_17zwift_race_finder6configNtB7_6Config4save0B9_
FNDA:0,_RNCNvMs4_NtCsdY1tzCMfrk2_17zwift_race_finder6configNtB7_6Config17get_download_path0B9_
FNDA:0,_RNCNvMs4_NtCsdY1tzCMfrk2_17zwift_race_finder6configNtB7_6Config17get_download_paths0_0B9_
FNDA:0,_RNCNvMs4_NtCsdY1tzCMfrk2_17zwift_race_finder6configNtB7_6Config17get_download_paths_0B9_
FNDA:0,_RNCNvMs4_NtCsdY1tzCMfrk2_17zwift_race_finder6configNtB7_6Config20get_user_config_path0B9_
FNDA:0,_RNCNvMs4_NtCsdY1tzCMfrk2_17zwift_race_finder6configNtB7_6Config4load0B9_
FNDA:0,_RNCNvMs4_NtCsdY1tzCMfrk2_17zwift_race_finder6configNtB7_6Config4loads_0B9_
FNDA:0,_RNCNvMs4_NtCsdY1tzCMfrk2_17zwift_race_finder6configNtB7_6Config4save0B9_
FNDA:0,_RNvMs4_NtCsdY1tzCMfrk2_17zwift_race_finder6configNtB5_6Config17get_download_path
FNDA:0,_RNvMs4_NtCsdY1tzCMfrk2_17zwift_race_finder6configNtB5_6Config19apply_env_overrides
FNDA:0,_RNvMs4_NtCsdY1tzCMfrk2_17zwift_race_finder6configNtB5_6Config20get_user_config_path
FNDA:0,_RNvMs4_NtCsdY1tzCMfrk2_17zwift_race_finder6configNtB5_6Config4load
FNDA:0,_RNvMs4_NtCsdY1tzCMfrk2_17zwift_race_finder6configNtB5_6Config4save
FNDA:0,_RNvMs5_NtCsdY1tzCMfrk2_17zwift_race_finder6configNtB5_7Secrets4load
FNDA:0,_RNvMs7_NtCsdY1tzCMfrk2_17zwift_race_finder6configNtB5_10FullConfig16default_category
FNDA:0,_RNvMs7_NtCsdY1tzCMfrk2_17zwift_race_finder6configNtB5_10FullConfig16default_height_m
FNDA:0,_RNvMs7_NtCsdY1tzCMfrk2_17zwift_race_finder6configNtB5_10FullConfig16windows_username
FNDA:0,_RNvMs7_NtCsdY1tzCMfrk2_17zwift_race_finder6configNtB5_10FullConfig17default_ftp_watts
FNDA:0,_RNvMs7_NtCsdY1tzCMfrk2_17zwift_race_finder6configNtB5_10FullConfig17default_weight_kg
FNDA:0,_RNvMs7_NtCsdY1tzCMfrk2_17zwift_race_finder6configNtB5_10FullConfig19default_zwift_score
FNDA:0,_RNvMs7_NtCsdY1tzCMfrk2_17zwift_race_finder6configNtB5_10FullConfig21zwiftpower_profile_id
FNDA:0,_RNvMs7_NtCsdY1tzCMfrk2_17zwift_race_finder6configNtB5_10FullConfig21zwiftpower_session_id
FNDA:0,_RNvMs7_NtCsdY1tzCMfrk2_17zwift_race_finder6configNtB5_10FullConfig4load
FNDA:0,_RNvXNtCsdY1tzCMfrk2_17zwift_race_finder6configNtB2_7SecretsNtNtCs9sjCchOt1K7_4core7default7Default7default
FNDA:0,_RNvXs0_NtCsdY1tzCMfrk2_17zwift_race_finder6configNtB5_8DefaultsNtNtCs9sjCchOt1K7_4core7default7Default7default
FNDA:0,_RNvXs1_NtCsdY1tzCMfrk2_17zwift_race_finder6configNtB5_12ImportConfigNtNtCs9sjCchOt1K7_4core7default7Default7default
FNDA:0,_RNvXs2_NtCsdY1tzCMfrk2_17zwift_race_finder6configNtB5_11PreferencesNtNtCs9sjCchOt1K7_4core7default7Default7default
FNDA:0,_RNvXs3_NtCsdY1tzCMfrk2_17zwift_race_finder6configNtB5_7DisplayNtNtCs9sjCchOt1K7_4core7default7Default7default
FNDA:0,_RNvXs6_NtCsdY1tzCMfrk2_17zwift_race_finder6configNtB5_10FullConfigNtNtCs9sjCchOt1K7_4core7default7Default7default
FNDA:0,_RNvXs_NtCsdY1tzCMfrk2_17zwift_race_finder6configNtB4_6ConfigNtNtCs9sjCchOt1K7_4core7default7Default7default
FNDA:0,_RNCNvMs4_NtCs6l7Ma75WKx0_17zwift_race_finder6configNtB7_6Config4load0B9_
FNDA:0,_RNCNvMs4_NtCs6l7Ma75WKx0_17zwift_race_finder6configNtB7_6Config4loads_0B9_
FNDA:0,_RNvMs4_NtCs6l7Ma75WKx0_17zwift_race_finder6configNtB5_6Config19apply_env_overrides
FNDA:0,_RNvMs4_NtCs6l7Ma75WKx0_17zwift_race_finder6configNtB5_6Config4load
FNDA:0,_RNvMs5_NtCs6l7Ma75WKx0_17zwift_race_finder6configNtB5_7Secrets4load
FNDA:0,_RNvMs7_NtCs6l7Ma75WKx0_17zwift_race_finder6configNtB5_10FullConfig16default_category
FNDA:0,_RNvMs7_NtCs6l7Ma75WKx0_17zwift_race_finder6configNtB5_10FullConfig19default_zwift_score
FNDA:0,_RNvMs7_NtCs6l7Ma75WKx0_17zwift_race_finder6configNtB5_10FullConfig4load
FNDA:0,_RNvXNtCs6l7Ma75WKx0_17zwift_race_finder6configNtB2_7SecretsNtNtCs9sjCchOt1K7_4core7default7Default7default
FNDA:0,_RNvXs0_NtCs6l7Ma75WKx0_17zwift_race_finder6configNtB5_8DefaultsNtNtCs9sjCchOt1K7_4core7default7Default7default
FNDA:0,_RNvXs1_NtCs6l7Ma75WKx0_17zwift_race_finder6configNtB5_12ImportConfigNtNtCs9sjCchOt1K7_4core7default7Default7default
FNDA:0,_RNvXs2_NtCs6l7Ma75WKx0_17zwift_race_finder6configNtB5_11PreferencesNtNtCs9sjCchOt1K7_4core7default7Default7default
FNDA:0,_RNvXs3_NtCs6l7Ma75WKx0_17zwift_race_finder6configNtB5_7DisplayNtNtCs9sjCchOt1K7_4core7default7Default7default
FNDA:0,_RNvXs6_NtCs6l7Ma75WKx0_17zwift_race_finder6configNtB5_10FullConfigNtNtCs9sjCchOt1K7_4core7default7Default7default
FNDA:0,_RNvXs_NtCs6l7Ma75WKx0_17zwift_race_finder6configNtB4_6ConfigNtNtCs9sjCchOt1K7_4core7default7Default7default
FNDA:0,_RNCNvMs4_NtCs6l7Ma75WKx0_17zwift_race_finder6configNtB7_6Config17get_download_path0B9_
FNDA:0,_RNCNvMs4_NtCs6l7Ma75WKx0_17zwift_race_finder6configNtB7_6Config17get_download_paths0_0B9_
FNDA:0,_RNCNvMs4_NtCs6l7Ma75WKx0_17zwift_race_finder6configNtB7_6Config17get_download_paths_0B9_
FNDA:0,_RNCNvMs4_NtCs6l7Ma75WKx0_17zwift_race_finder6configNtB7_6Config20get_user_config_path0B9_
FNDA:0,_RNCNvMs4_NtCs6l7Ma75WKx0_17zwift_race_finder6configNtB7_6Config4save0B9_
FNDA:0,_RNvMs4_NtCs6l7Ma75WKx0_17zwift_race_finder6configNtB5_6Config17get_download_path
FNDA:0,_RNvMs4_NtCs6l7Ma75WKx0_17zwift_race_finder6configNtB5_6Config20get_user_config_path
FNDA:0,_RNvMs4_NtCs6l7Ma75WKx0_17zwift_race_finder6configNtB5_6Config4save
FNDA:0,_RNvMs7_NtCs6l7Ma75WKx0_17zwift_race_finder6configNtB5_10FullConfig16default_height_m
FNDA:0,_RNvMs7_NtCs6l7Ma75WKx0_17zwift_race_finder6configNtB5_10FullConfig16windows_username
FNDA:0,_RNvMs7_NtCs6l7Ma75WKx0_17zwift_race_finder6configNtB5_10FullConfig17default_ftp_watts
FNDA:0,_RNvMs7_NtCs6l7Ma75WKx0_17zwift_race_finder6configNtB5_10FullConfig17default_weight_kg
FNDA:0,_RNvMs7_NtCs6l7Ma75WKx0_17zwift_race_finder6configNtB5_10FullConfig21zwiftpower_profile_id
FNDA:0,_RNvMs7_NtCs6l7Ma75WKx0_17zwift_race_finder6configNtB5_10FullConfig21zwiftpower_session_id
FNDA:0,_RNCNvMs4_NtCs2felTZli3Ur_17zwift_race_finder6configNtB7_6Config17get_download_path0B9_
FNDA:0,_RNCNvMs4_NtCs2felTZli3Ur_17zwift_race_finder6configNtB7_6Config17get_download_paths0_0B9_
FNDA:0,_RNCNvMs4_NtCs2felTZli3Ur_17zwift_race_finder6configNtB7_6Config17get_download_paths_0B9_
FNDA:0,_RNCNvMs4_NtCs2felTZli3Ur_17zwift_race_finder6configNtB7_6Config20get_user_config_path0B9_
FNDA:0,_RNCNvMs4_NtCs2felTZli3Ur_17zwift_race_finder6configNtB7_6Config4load0B9_
FNDA:0,_RNCNvMs4_NtCs2felTZli3Ur_17zwift_race_finder6configNtB7_6Config4loads_0B9_
FNDA:0,_RNCNvMs4_NtCs2felTZli3Ur_17zwift_race_finder6configNtB7_6Config4save0B9_
FNDA:0,_RNvMs4_NtCs2felTZli3Ur_17zwift_race_finder6configNtB5_6Config17get_download_path
FNDA:0,_RNvMs4_NtCs2felTZli3Ur_17zwift_race_finder6configNtB5_6Config19apply_env_overrides
FNDA:0,_RNvMs4_NtCs2felTZli3Ur_17zwift_race_finder6configNtB5_6Config20get_user_config_path
FNDA:0,_RNvMs4_NtCs2felTZli3Ur_17zwift_race_finder6configNtB5_6Config4load
FNDA:0,_RNvMs4_NtCs2felTZli3Ur_17zwift_race_finder6configNtB5_6Config4save
FNDA:0,_RNvMs5_NtCs2felTZli3Ur_17zwift_race_finder6configNtB5_7Secrets4load
FNDA:0,_RNvMs7_NtCs2felTZli3Ur_17zwift_race_finder6configNtB5_10FullConfig16default_category
FNDA:0,_RNvMs7_NtCs2felTZli3Ur_17zwift_race_finder6configNtB5_10FullConfig16default_height_m
FNDA:0,_RNvMs7_NtCs2felTZli3Ur_17zwift_race_finder6configNtB5_10FullConfig16windows_username
FNDA:0,_RNvMs7_NtCs2felTZli3Ur_17zwift_race_finder6configNtB5_10FullConfig17default_ftp_watts
FNDA:0,_RNvMs7_NtCs2felTZli3Ur_17zwift_race_finder6configNtB5_10FullConfig17default_weight_kg
FNDA:0,_RNvMs7_NtCs2felTZli3Ur_17zwift_race_finder6configNtB5_10FullConfig19default_zwift_score
FNDA:0,_RNvMs7_NtCs2felTZli3Ur_17zwift_race_finder6configNtB5_10FullConfig21zwiftpower_profile_id
FNDA:0,_RNvMs7_NtCs2felTZli3Ur_17zwift_race_finder6configNtB5_10FullConfig21zwiftpower_session_id
FNDA:0,_RNvMs7_NtCs2felTZli3Ur_17zwift_race_finder6configNtB5_10FullConfig4load
FNDA:0,_RNvXNtCs2felTZli3Ur_17zwift_race_finder6configNtB2_7SecretsNtNtCs9sjCchOt1K7_4core7default7Default7default
FNDA:0,_RNvXs0_NtCs2felTZli3Ur_17zwift_race_finder6configNtB5_8DefaultsNtNtCs9sjCchOt1K7_4core7default7Default7default
FNDA:0,_RNvXs1_NtCs2felTZli3Ur_17zwift_race_finder6configNtB5_12ImportConfigNtNtCs9sjCchOt1K7_4core7default7Default7default
FNDA:0,_RNvXs2_NtCs2felTZli3Ur_17zwift_race_finder6configNtB5_11PreferencesNtNtCs9sjCchOt1K7_4core7default7Default7default
FNDA:0,_RNvXs3_NtCs2felTZli3Ur_17zwift_race_finder6configNtB5_7DisplayNtNtCs9sjCchOt1K7_4core7default7Default7default
FNDA:0,_RNvXs6_NtCs2felTZli3Ur_17zwift_race_finder6configNtB5_10FullConfigNtNtCs9sjCchOt1K7_4core7default7Default7default
FNDA:0,_RNvXs_NtCs2felTZli3Ur_17zwift_race_finder6configNtB4_6ConfigNtNtCs9sjCchOt1K7_4core7default7Default7default
FNF:29
FNH:9
DA:77,0
DA:78,0
DA:79,0
DA:80,0
DA:81,0
DA:82,0
DA:86,3
DA:87,3
DA:88,3
DA:89,3
DA:90,3
DA:91,3
DA:92,3
DA:93,3
DA:97,4
DA:98,4
DA:99,4
DA:100,4
DA:101,4
DA:102,4
DA:103,4
DA:104,4
DA:105,4
DA:109,7
DA:110,7
DA:111,7
DA:112,7
DA:113,7
DA:117,5
DA:118,5
DA:119,5
DA:120,5
DA:121,5
DA:122,5
DA:123,5
DA:127,6
DA:128,6
DA:129,6
DA:130,6
DA:131,6
DA:132,6
DA:137,2
DA:138,2
DA:139,2
DA:140,2
DA:141,2
DA:142,2
DA:143,2
DA:144,2
DA:145,2
DA:146,2
DA:147,2
DA:148,2
DA:149,2
DA:150,2
DA:151,2
DA:152,2
DA:153,2
DA:154,2
DA:155,2
DA:156,2
DA:157,2
DA:158,2
DA:159,2
DA:160,2
DA:161,2
DA:162,2
DA:163,2
DA:164,2
DA:165,5
DA:166,4
DA:167,1
DA:168,1
DA:169,1
DA:170,3
DA:174,2
DA:175,2
DA:176,2
DA:177,2
DA:180,2
DA:182,2
DA:183,0
DA:184,0
DA:185,0
DA:186,2
DA:188,2
DA:189,0
DA:190,2
DA:192,2
DA:193,0
DA:194,0
DA:195,0
DA:196,2
DA:198,2
DA:199,0
DA:200,0
DA:201,0
DA:202,2
DA:204,2
DA:205,0
DA:206,0
DA:207,0
DA:208,2
DA:211,2
DA:212,0
DA:213,0
DA:214,0
DA:215,2
DA:217,2
DA:218,0
DA:219,0
DA:220,0
DA:221,2
DA:223,2
DA:224,0
DA:225,0
DA:226,0
DA:227,2
DA:228,2
DA:232,0
DA:233,0
DA:234,0
DA:235,0
DA:236,0
DA:237,0
DA:238,0
DA:240,0
DA:242,0
DA:246,0
DA:247,0
DA:248,0
DA:249,0
DA:250,0
DA:251,0
DA:252,0
DA:254,0
DA:255,0
DA:256,0
DA:258,0
DA:259,0
DA:260,0
DA:264,0
DA:265,0
DA:266,0
DA:267,0
DA:268,0
DA:269,0
DA:270,0
DA:275,0
DA:276,0
DA:277,0
DA:278,0
DA:279,0
DA:280,0
DA:281,0
DA:293,0
DA:294,0
DA:295,0
DA:296,0
DA:297,0
DA:298,0
DA:303,0
DA:304,0
DA:305,0
DA:306,0
DA:308,0
DA:313,0
DA:314,0
DA:315,0
DA:319,0
DA:320,0
DA:321,0
DA:324,0
DA:325,0
DA:326,0
DA:329,0
DA:330,0
DA:331,0
DA:335,0
DA:336,0
DA:337,0
DA:341,0
DA:342,0
DA:343,0
DA:347,0
DA:348,0
DA:349,0
DA:353,0
DA:354,0
DA:355,0
BRF:0
BRH:0
LF:200
LH:95
end_of_record
SF:/home/jack/tools/rust/zwift-race-finder/src/database.rs
FN:421,_RNCNvMNtCs1kDST8A3VsF_17zwift_race_finder8databaseNtB4_8Database14get_all_routes0B6_
FN:499,_RNCNvMNtCs1kDST8A3VsF_17zwift_race_finder8databaseNtB4_8Database15get_rider_stats0B6_
FN:302,_RNCNvMNtCs1kDST8A3VsF_17zwift_race_finder8databaseNtB4_8Database17get_route_by_name0B6_
FN:196,_RNCNvMNtCs1kDST8A3VsF_17zwift_race_finder8databaseNtB4_8Database17seed_initial_data0B6_
FN:517,_RNCNvMNtCs1kDST8A3VsF_17zwift_race_finder8databaseNtB4_8Database18get_multi_lap_info0B6_
FN:530,_RNCNvMNtCs1kDST8A3VsF_17zwift_race_finder8databaseNtB4_8Database18get_multi_lap_infos_0B6_
FN:486,_RNCNvMNtCs1kDST8A3VsF_17zwift_race_finder8databaseNtB4_8Database18get_unknown_routes0B6_
FN:607,_RNCNvMNtCs1kDST8A3VsF_17zwift_race_finder8databaseNtB4_8Database18is_route_completed0B6_
FN:617,_RNCNvMNtCs1kDST8A3VsF_17zwift_race_finder8databaseNtB4_8Database20get_completion_stats0B6_
FN:623,_RNCNvMNtCs1kDST8A3VsF_17zwift_race_finder8databaseNtB4_8Database20get_completion_statss_0B6_
FN:391,_RNCNvMNtCs1kDST8A3VsF_17zwift_race_finder8databaseNtB4_8Database21get_average_race_time0B6_
FN:407,_RNCNvMNtCs1kDST8A3VsF_17zwift_race_finder8databaseNtB4_8Database21get_average_race_times0_0B6_
FN:403,_RNCNvMNtCs1kDST8A3VsF_17zwift_race_finder8databaseNtB4_8Database21get_average_race_times_0B6_
FN:543,_RNCNvMNtCs1kDST8A3VsF_17zwift_race_finder8databaseNtB4_8Database24should_attempt_discovery0B6_
FN:364,_RNCNvMNtCs1kDST8A3VsF_17zwift_race_finder8databaseNtB4_8Database26get_race_results_for_route0B6_
FN:641,_RNCNvMNtCs1kDST8A3VsF_17zwift_race_finder8databaseNtB4_8Database26get_world_completion_stats0B6_
FN:239,_RNCNvMNtCs1kDST8A3VsF_17zwift_race_finder8databaseNtB4_8Database9get_route0B6_
FN:656,_RNCNvNtCs1kDST8A3VsF_17zwift_race_finder8database17get_database_path0B5_
FN:302,_RNCNvMNtCsdY1tzCMfrk2_17zwift_race_finder8databaseNtB4_8Database17get_route_by_name0B6_
FN:486,_RNCNvMNtCsdY1tzCMfrk2_17zwift_race_finder8databaseNtB4_8Database18get_unknown_routes0B6_
FN:617,_RNCNvMNtCsdY1tzCMfrk2_17zwift_race_finder8databaseNtB4_8Database20get_completion_stats0B6_
FN:623,_RNCNvMNtCsdY1tzCMfrk2_17zwift_race_finder8databaseNtB4_8Database20get_completion_statss_0B6_
FN:391,_RNCNvMNtCsdY1tzCMfrk2_17zwift_race_finder8databaseNtB4_8Database21get_average_race_time0B6_
FN:407,_RNCNvMNtCsdY1tzCMfrk2_17zwift_race_finder8databaseNtB4_8Database21get_average_race_times0_0B6_
FN:403,_RNCNvMNtCsdY1tzCMfrk2_17zwift_race_finder8databaseNtB4_8Database21get_average_race_times_0B6_
FN:543,_RNCNvMNtCsdY1tzCMfrk2_17zwift_race_finder8databaseNtB4_8Database24should_attempt_discovery0B6_
FN:641,_RNCNvMNtCsdY1tzCMfrk2_17zwift_race_finder8databaseNtB4_8Database26get_world_completion_stats0B6_
FN:290,_RNvMNtCsdY1tzCMfrk2_17zwift_race_finder8databaseNtB2_8Database17get_route_by_name
FN:479,_RNvMNtCsdY1tzCMfrk2_17zwift_race_finder8databaseNtB2_8Database18get_unknown_routes
FN:593,_RNvMNtCsdY1tzCMfrk2_17zwift_race_finder8databaseNtB2_8Database19mark_route_complete
FN:613,_RNvMNtCsdY1tzCMfrk2_17zwift_race_finder8databaseNtB2_8Database20get_completion_stats
FN:382,_RNvMNtCsdY1tzCMfrk2_17zwift_race_finder8databaseNtB2_8Database21get_average_race_time
FN:564,_RNvMNtCsdY1tzCMfrk2_17zwift_race_finder8databaseNtB2_8Database21save_discovered_route
FN:551,_RNvMNtCsdY1tzCMfrk2_17zwift_race_finder8databaseNtB2_8Database24record_discovery_attempt
FN:537,_RNvMNtCsdY1tzCMfrk2_17zwift_race_finder8databaseNtB2_8Database24should_attempt_discovery
FN:630,_RNvMNtCsdY1tzCMfrk2_17zwift_race_finder8databaseNtB2_8Database26get_world_completion_stats
FN:262,_RNvMNtCsdY1tzCMfrk2_17zwift_race_finder8databaseNtB2_8Database9add_route
FN:97,_RNvMNtCsdY1tzCMfrk2_17zwift_race_finder8databaseNtB2_8Database13create_tables
FN:412,_RNvMNtCsdY1tzCMfrk2_17zwift_race_finder8databaseNtB2_8Database14get_all_routes
FN:338,_RNvMNtCsdY1tzCMfrk2_17zwift_race_finder8databaseNtB2_8Database15add_race_result
FN:495,_RNvMNtCsdY1tzCMfrk2_17zwift_race_finder8databaseNtB2_8Database15get_rider_stats
FN:191,_RNvMNtCsdY1tzCMfrk2_17zwift_race_finder8databaseNtB2_8Database17seed_initial_data
FN:512,_RNvMNtCsdY1tzCMfrk2_17zwift_race_finder8databaseNtB2_8Database18get_multi_lap_info
FN:603,_RNvMNtCsdY1tzCMfrk2_17zwift_race_finder8databaseNtB2_8Database18is_route_completed
FN:444,_RNvMNtCsdY1tzCMfrk2_17zwift_race_finder8databaseNtB2_8Database20get_all_race_results
FN:325,_RNvMNtCsdY1tzCMfrk2_17zwift_race_finder8databaseNtB2_8Database20record_unknown_route
FN:356,_RNvMNtCsdY1tzCMfrk2_17zwift_race_finder8databaseNtB2_8Database26get_race_results_for_route
FN:86,_RNvMNtCsdY1tzCMfrk2_17zwift_race_finder8databaseNtB2_8Database3new
FN:230,_RNvMNtCsdY1tzCMfrk2_17zwift_race_finder8databaseNtB2_8Database9get_route
FN:654,_RNvNtCsdY1tzCMfrk2_17zwift_race_finder8database17get_database_path
FN:421,_RNCNvMNtCsdY1tzCMfrk2_17zwift_race_finder8databaseNtB4_8Database14get_all_routes0B6_
FN:499,_RNCNvMNtCsdY1tzCMfrk2_17zwift_race_finder8databaseNtB4_8Database15get_rider_stats0B6_
FN:196,_RNCNvMNtCsdY1tzCMfrk2_17zwift_race_finder8databaseNtB4_8Database17seed_initial_data0B6_
FN:517,_RNCNvMNtCsdY1tzCMfrk2_17zwift_race_finder8databaseNtB4_8Database18get_multi_lap_info0B6_
FN:530,_RNCNvMNtCsdY1tzCMfrk2_17zwift_race_finder8databaseNtB4_8Database18get_multi_lap_infos_0B6_
FN:607,_RNCNvMNtCsdY1tzCMfrk2_17zwift_race_finder8databaseNtB4_8Database18is_route_completed0B6_
FN:451,_RNCNvMNtCsdY1tzCMfrk2_17zwift_race_finder8databaseNtB4_8Database20get_all_race_results0B6_
FN:364,_RNCNvMNtCsdY1tzCMfrk2_17zwift_race_finder8databaseNtB4_8Database26get_race_results_for_route0B6_
FN:239,_RNCNvMNtCsdY1tzCMfrk2_17zwift_race_finder8databaseNtB4_8Database9get_route0B6_
FN:656,_RNCNvNtCsdY1tzCMfrk2_17zwift_race_finder8database17get_database_path0B5_
FN:669,_RNvNtNtCsdY1tzCMfrk2_17zwift_race_finder8database5testss_22test_database_creation
FN:681,_RNvNtNtCsdY1tzCMfrk2_17zwift_race_finder8database5testss_24test_race_result_storage
FN:499,_RNCNvMNtCs6l7Ma75WKx0_17zwift_race_finder8databaseNtB4_8Database15get_rider_stats0B6_
FN:196,_RNCNvMNtCs6l7Ma75WKx0_17zwift_race_finder8databaseNtB4_8Database17seed_initial_data0B6_
FN:517,_RNCNvMNtCs6l7Ma75WKx0_17zwift_race_finder8databaseNtB4_8Database18get_multi_lap_info0B6_
FN:530,_RNCNvMNtCs6l7Ma75WKx0_17zwift_race_finder8databaseNtB4_8Database18get_multi_lap_infos_0B6_
FN:486,_RNCNvMNtCs6l7Ma75WKx0_17zwift_race_finder8databaseNtB4_8Database18get_unknown_routes0B6_
FN:607,_RNCNvMNtCs6l7Ma75WKx0_17zwift_race_finder8databaseNtB4_8Database18is_route_completed0B6_
FN:617,_RNCNvMNtCs6l7Ma75WKx0_17zwift_race_finder8databaseNtB4_8Database20get_completion_stats0B6_
FN:623,_RNCNvMNtCs6l7Ma75WKx0_17zwift_race_finder8databaseNtB4_8Database20get_completion_statss_0B6_
FN:543,_RNCNvMNtCs6l7Ma75WKx0_17zwift_race_finder8databaseNtB4_8Database24should_attempt_discovery0B6_
FN:641,_RNCNvMNtCs6l7Ma75WKx0_17zwift_race_finder8databaseNtB4_8Database26get_world_completion_stats0B6_
FN:239,_RNCNvMNtCs6l7Ma75WKx0_17zwift_race_finder8databaseNtB4_8Database9get_route0B6_
FN:656,_RNCNvNtCs6l7Ma75WKx0_17zwift_race_finder8database17get_database_path0B5_
FN:97,_RNvMNtCs6l7Ma75WKx0_17zwift_race_finder8databaseNtB2_8Database13create_tables
FN:338,_RNvMNtCs6l7Ma75WKx0_17zwift_race_finder8databaseNtB2_8Database15add_race_result
FN:495,_RNvMNtCs6l7Ma75WKx0_17zwift_race_finder8databaseNtB2_8Database15get_rider_stats
FN:191,_RNvMNtCs6l7Ma75WKx0_17zwift_race_finder8databaseNtB2_8Database17seed_initial_data
FN:512,_RNvMNtCs6l7Ma75WKx0_17zwift_race_finder8databaseNtB2_8Database18get_multi_lap_info
FN:479,_RNvMNtCs6l7Ma75WKx0_17zwift_race_finder8databaseNtB2_8Database18get_unknown_routes
FN:603,_RNvMNtCs6l7Ma75WKx0_17zwift_race_finder8databaseNtB2_8Database18is_route_completed
FN:593,_RNvMNtCs6l7Ma75WKx0_17zwift_race_finder8databaseNtB2_8Database19mark_route_complete
FN:613,_RNvMNtCs6l7Ma75WKx0_17zwift_race_finder8databaseNtB2_8Database20get_completion_stats
FN:325,_RNvMNtCs6l7Ma75WKx0_17zwift_race_finder8databaseNtB2_8Database20record_unknown_route
FN:564,_RNvMNtCs6l7Ma75WKx0_17zwift_race_finder8databaseNtB2_8Database21save_discovered_route
FN:551,_RNvMNtCs6l7Ma75WKx0_17zwift_race_finder8databaseNtB2_8Database24record_discovery_attempt
FN:537,_RNvMNtCs6l7Ma75WKx0_17zwift_race_finder8databaseNtB2_8Database24should_attempt_discovery
FN:630,_RNvMNtCs6l7Ma75WKx0_17zwift_race_finder8databaseNtB2_8Database26get_world_completion_stats
FN:86,_RNvMNtCs6l7Ma75WKx0_17zwift_race_finder8databaseNtB2_8Database3new
FN:230,_RNvMNtCs6l7Ma75WKx0_17zwift_race_finder8databaseNtB2_8Database9get_route
FN:654,_RNvNtCs6l7Ma75WKx0_17zwift_race_finder8database17get_database_path
FN:421,_RNCNvMNtCs6l7Ma75WKx0_17zwift_race_finder8databaseNtB4_8Database14get_all_routes0B6_
FN:302,_RNCNvMNtCs6l7Ma75WKx0_17zwift_race_finder8databaseNtB4_8Database17get_route_by_name0B6_
FN:391,_RNCNvMNtCs6l7Ma75WKx0_17zwift_race_finder8databaseNtB4_8Database21get_average_race_time0B6_
FN:407,_RNCNvMNtCs6l7Ma75WKx0_17zwift_race_finder8databaseNtB4_8Database21get_average_race_times0_0B6_
FN:403,_RNCNvMNtCs6l7Ma75WKx0_17zwift_race_finder8databaseNtB4_8Database21get_average_race_times_0B6_
FN:364,_RNCNvMNtCs6l7Ma75WKx0_17zwift_race_finder8databaseNtB4_8Database26get_race_results_for_route0B6_
FN:412,_RNvMNtCs6l7Ma75WKx0_17zwift_race_finder8databaseNtB2_8Database14get_all_routes
FN:290,_RNvMNtCs6l7Ma75WKx0_17zwift_race_finder8databaseNtB2_8Database17get_route_by_name
FN:382,_RNvMNtCs6l7Ma75WKx0_17zwift_race_finder8databaseNtB2_8Database21get_average_race_time
FN:356,_RNvMNtCs6l7Ma75WKx0_17zwift_race_finder8databaseNtB2_8Database26get_race_results_for_route
FN:262,_RNvMNtCs6l7Ma75WKx0_17zwift_race_finder8databaseNtB2_8Database9add_route
FN:421,_RNCNvMNtCs2felTZli3Ur_17zwift_race_finder8databaseNtB4_8Database14get_all_routes0B6_
FN:499,_RNCNvMNtCs2felTZli3Ur_17zwift_race_finder8databaseNtB4_8Database15get_rider_stats0B6_
FN:302,_RNCNvMNtCs2felTZli3Ur_17zwift_race_finder8databaseNtB4_8Database17get_route_by_name0B6_
FN:517,_RNCNvMNtCs2felTZli3Ur_17zwift_race_finder8databaseNtB4_8Database18get_multi_lap_info0B6_
FN:530,_RNCNvMNtCs2felTZli3Ur_17zwift_race_finder8databaseNtB4_8Database18get_multi_lap_infos_0B6_
FN:486,_RNCNvMNtCs2felTZli3Ur_17zwift_race_finder8databaseNtB4_8Database18get_unknown_routes0B6_
FN:607,_RNCNvMNtCs2felTZli3Ur_17zwift_race_finder8databaseNtB4_8Database18is_route_completed0B6_
FN:451,_RNCNvMNtCs2felTZli3Ur_17zwift_race_finder8databaseNtB4_8Database20get_all_race_results0B6_
FN:617,_RNCNvMNtCs2felTZli3Ur_17zwift_race_finder8databaseNtB4_8Database20get_completion_stats0B6_
FN:623,_RNCNvMNtCs2felTZli3Ur_17zwift_race_finder8databaseNtB4_8Database20get_completion_statss_0B6_
FN:391,_RNCNvMNtCs2felTZli3Ur_17zwift_race_finder8databaseNtB4_8Database21get_average_race_time0B6_
FN:407,_RNCNvMNtCs2felTZli3Ur_17zwift_race_finder8databaseNtB4_8Database21get_average_race_times0_0B6_
FN:403,_RNCNvMNtCs2felTZli3Ur_17zwift_race_finder8databaseNtB4_8Database21get_average_race_times_0B6_
FN:543,_RNCNvMNtCs2felTZli3Ur_17zwift_race_finder8databaseNtB4_8Database24should_attempt_discovery0B6_
FN:641,_RNCNvMNtCs2felTZli3Ur_17zwift_race_finder8databaseNtB4_8Database26get_world_completion_stats0B6_
FN:412,_RNvMNtCs2felTZli3Ur_17zwift_race_finder8databaseNtB2_8Database14get_all_routes
FN:495,_RNvMNtCs2felTZli3Ur_17zwift_race_finder8databaseNtB2_8Database15get_rider_stats
FN:290,_RNvMNtCs2felTZli3Ur_17zwift_race_finder8databaseNtB2_8Database17get_route_by_name
FN:512,_RNvMNtCs2felTZli3Ur_17zwift_race_finder8databaseNtB2_8Database18get_multi_lap_info
FN:479,_RNvMNtCs2felTZli3Ur_17zwift_race_finder8databaseNtB2_8Database18get_unknown_routes
FN:603,_RNvMNtCs2felTZli3Ur_17zwift_race_finder8databaseNtB2_8Database18is_route_completed
FN:593,_RNvMNtCs2felTZli3Ur_17zwift_race_finder8databaseNtB2_8Database19mark_route_complete
FN:444,_RNvMNtCs2felTZli3Ur_17zwift_race_finder8databaseNtB2_8Database20get_all_race_results
FN:613,_RNvMNtCs2felTZli3Ur_17zwift_race_finder8databaseNtB2_8Database20get_completion_stats
FN:325,_RNvMNtCs2felTZli3Ur_17zwift_race_finder8databaseNtB2_8Database20record_unknown_route
FN:382,_RNvMNtCs2felTZli3Ur_17zwift_race_finder8databaseNtB2_8Database21get_average_race_time
FN:564,_RNvMNtCs2felTZli3Ur_17zwift_race_finder8databaseNtB2_8Database21save_discovered_route
FN:551,_RNvMNtCs2felTZli3Ur_17zwift_race_finder8databaseNtB2_8Database24record_discovery_attempt
FN:537,_RNvMNtCs2felTZli3Ur_17zwift_race_finder8databaseNtB2_8Database24should_attempt_discovery
FN:630,_RNvMNtCs2felTZli3Ur_17zwift_race_finder8databaseNtB2_8Database26get_world_completion_stats
FN:262,_RNvMNtCs2felTZli3Ur_17zwift_race_finder8databaseNtB2_8Database9add_route
FN:196,_RNCNvMNtCs2felTZli3Ur_17zwift_race_finder8databaseNtB4_8Database17seed_initial_data0B6_
FN:364,_RNCNvMNtCs2felTZli3Ur_17zwift_race_finder8databaseNtB4_8Database26get_race_results_for_route0B6_
FN:239,_RNCNvMNtCs2felTZli3Ur_17zwift_race_finder8databaseNtB4_8Database9get_route0B6_
FN:656,_RNCNvNtCs2felTZli3Ur_17zwift_race_finder8database17get_database_path0B5_
FN:669,_RNvNtNtCs2felTZli3Ur_17zwift_race_finder8database5testss_22test_database_creation
FN:681,_RNvNtNtCs2felTZli3Ur_17zwift_race_finder8database5testss_24test_race_result_storage
FN:97,_RNvMNtCs2felTZli3Ur_17zwift_race_finder8databaseNtB2_8Database13create_tables
FN:338,_RNvMNtCs2felTZli3Ur_17zwift_race_finder8databaseNtB2_8Database15add_race_result
FN:191,_RNvMNtCs2felTZli3Ur_17zwift_race_finder8databaseNtB2_8Database17seed_initial_data
FN:356,_RNvMNtCs2felTZli3Ur_17zwift_race_finder8databaseNtB2_8Database26get_race_results_for_route
FN:86,_RNvMNtCs2felTZli3Ur_17zwift_race_finder8databaseNtB2_8Database3new
FN:230,_RNvMNtCs2felTZli3Ur_17zwift_race_finder8databaseNtB2_8Database9get_route
FN:654,_RNvNtCs2felTZli3Ur_17zwift_race_finder8database17get_database_path
FNDA:0,_RNCNvMNtCs1kDST8A3VsF_17zwift_race_finder8databaseNtB4_8Database14get_all_routes0B6_
FNDA:0,_RNCNvMNtCs1kDST8A3VsF_17zwift_race_finder8databaseNtB4_8Database15get_rider_stats0B6_
FNDA:0,_RNCNvMNtCs1kDST8A3VsF_17zwift_race_finder8databaseNtB4_8Database17get_route_by_name0B6_
FNDA:0,_RNCNvMNtCs1kDST8A3VsF_17zwift_race_finder8databaseNtB4_8Database17seed_initial_data0B6_
FNDA:0,_RNCNvMNtCs1kDST8A3VsF_17zwift_race_finder8databaseNtB4_8Database18get_multi_lap_info0B6_
FNDA:0,_RNCNvMNtCs1kDST8A3VsF_17zwift_race_finder8databaseNtB4_8Database18get_multi_lap_infos_0B6_
FNDA:0,_RNCNvMNtCs1kDST8A3VsF_17zwift_race_finder8databaseNtB4_8Database18get_unknown_routes0B6_
FNDA:0,_RNCNvMNtCs1kDST8A3VsF_17zwift_race_finder8databaseNtB4_8Database18is_route_completed0B6_
FNDA:0,_RNCNvMNtCs1kDST8A3VsF_17zwift_race_finder8databaseNtB4_8Database20get_completion_stats0B6_
FNDA:0,_RNCNvMNtCs1kDST8A3VsF_17zwift_race_finder8databaseNtB4_8Database20get_completion_statss_0B6_
FNDA:0,_RNCNvMNtCs1kDST8A3VsF_17zwift_race_finder8databaseNtB4_8Database21get_average_race_time0B6_
FNDA:0,_RNCNvMNtCs1kDST8A3VsF_17zwift_race_finder8databaseNtB4_8Database21get_average_race_times0_0B6_
FNDA:0,_RNCNvMNtCs1kDST8A3VsF_17zwift_race_finder8databaseNtB4_8Database21get_average_race_times_0B6_
FNDA:0,_RNCNvMNtCs1kDST8A3VsF_17zwift_race_finder8databaseNtB4_8Database24should_attempt_discovery0B6_
FNDA:0,_RNCNvMNtCs1kDST8A3VsF_17zwift_race_finder8databaseNtB4_8Database26get_race_results_for_route0B6_
FNDA:0,_RNCNvMNtCs1kDST8A3VsF_17zwift_race_finder8databaseNtB4_8Database26get_world_completion_stats0B6_
FNDA:0,_RNCNvMNtCs1kDST8A3VsF_17zwift_race_finder8databaseNtB4_8Database9get_route0B6_
FNDA:0,_RNCNvNtCs1kDST8A3VsF_17zwift_race_finder8database17get_database_path0B5_
FNDA:0,_RNCNvMNtCsdY1tzCMfrk2_17zwift_race_finder8databaseNtB4_8Database17get_route_by_name0B6_
FNDA:0,_RNCNvMNtCsdY1tzCMfrk2_17zwift_race_finder8databaseNtB4_8Database18get_unknown_routes0B6_
FNDA:0,_RNCNvMNtCsdY1tzCMfrk2_17zwift_race_finder8databaseNtB4_8Database20get_completion_stats0B6_
FNDA:0,_RNCNvMNtCsdY1tzCMfrk2_17zwift_race_finder8databaseNtB4_8Database20get_completion_statss_0B6_
FNDA:0,_RNCNvMNtCsdY1tzCMfrk2_17zwift_race_finder8databaseNtB4_8Database21get_average_race_time0B6_
FNDA:0,_RNCNvMNtCsdY1tzCMfrk2_17zwift_race_finder8databaseNtB4_8Database21get_average_race_times0_0B6_
FNDA:0,_RNCNvMNtCsdY1tzCMfrk2_17zwift_race_finder8databaseNtB4_8Database21get_average_race_times_0B6_
FNDA:0,_RNCNvMNtCsdY1tzCMfrk2_17zwift_race_finder8databaseNtB4_8Database24should_attempt_discovery0B6_
FNDA:0,_RNCNvMNtCsdY1tzCMfrk2_17zwift_race_finder8databaseNtB4_8Database26get_world_completion_stats0B6_
FNDA:0,_RNvMNtCsdY1tzCMfrk2_17zwift_race_finder8databaseNtB2_8Database17get_route_by_name
FNDA:0,_RNvMNtCsdY1tzCMfrk2_17zwift_race_finder8databaseNtB2_8Database18get_unknown_routes
FNDA:0,_RNvMNtCsdY1tzCMfrk2_17zwift_race_finder8databaseNtB2_8Database19mark_route_complete
FNDA:0,_RNvMNtCsdY1tzCMfrk2_17zwift_race_finder8databaseNtB2_8Database20get_completion_stats
FNDA:0,_RNvMNtCsdY1tzCMfrk2_17zwift_race_finder8databaseNtB2_8Database21get_average_race_time
FNDA:0,_RNvMNtCsdY1tzCMfrk2_17zwift_race_finder8databaseNtB2_8Database21save_discovered_route
FNDA:0,_RNvMNtCsdY1tzCMfrk2_17zwift_race_finder8databaseNtB2_8Database24record_discovery_attempt
FNDA:0,_RNvMNtCsdY1tzCMfrk2_17zwift_race_finder8databaseNtB2_8Database24should_attempt_discovery
FNDA:0,_RNvMNtCsdY1tzCMfrk2_17zwift_race_finder8databaseNtB2_8Database26get_world_completion_stats
FNDA:0,_RNvMNtCsdY1tzCMfrk2_17zwift_race_finder8databaseNtB2_8Database9add_route
FNDA:480,_RNvMNtCsdY1tzCMfrk2_17zwift_race_finder8databaseNtB2_8Database13create_tables
FNDA:1,_RNvMNtCsdY1tzCMfrk2_17zwift_race_finder8databaseNtB2_8Database14get_all_routes
FNDA:1,_RNvMNtCsdY1tzCMfrk2_17zwift_race_finder8databaseNtB2_8Database15add_race_result
FNDA:111,_RNvMNtCsdY1tzCMfrk2_17zwift_race_finder8databaseNtB2_8Database15get_rider_stats
FNDA:480,_RNvMNtCsdY1tzCMfrk2_17zwift_race_finder8databaseNtB2_8Database17seed_initial_data
FNDA:103,_RNvMNtCsdY1tzCMfrk2_17zwift_race_finder8databaseNtB2_8Database18get_multi_lap_info
FNDA:0,_RNvMNtCsdY1tzCMfrk2_17zwift_race_finder8databaseNtB2_8Database18is_route_completed
FNDA:2,_RNvMNtCsdY1tzCMfrk2_17zwift_race_finder8databaseNtB2_8Database20get_all_race_results
FNDA:2,_RNvMNtCsdY1tzCMfrk2_17zwift_race_finder8databaseNtB2_8Database20record_unknown_route
FNDA:1,_RNvMNtCsdY1tzCMfrk2_17zwift_race_finder8databaseNtB2_8Database26get_race_results_for_route
FNDA:480,_RNvMNtCsdY1tzCMfrk2_17zwift_race_finder8databaseNtB2_8Database3new
FNDA:260,_RNvMNtCsdY1tzCMfrk2_17zwift_race_finder8databaseNtB2_8Database9get_route
FNDA:480,_RNvNtCsdY1tzCMfrk2_17zwift_race_finder8database17get_database_path
FNDA:274,_RNCNvMNtCsdY1tzCMfrk2_17zwift_race_finder8databaseNtB4_8Database14get_all_routes0B6_
FNDA:111,_RNCNvMNtCsdY1tzCMfrk2_17zwift_race_finder8databaseNtB4_8Database15get_rider_stats0B6_
FNDA:480,_RNCNvMNtCsdY1tzCMfrk2_17zwift_race_finder8databaseNtB4_8Database17seed_initial_data0B6_
FNDA:22,_RNCNvMNtCsdY1tzCMfrk2_17zwift_race_finder8databaseNtB4_8Database18get_multi_lap_info0B6_
FNDA:0,_RNCNvMNtCsdY1tzCMfrk2_17zwift_race_finder8databaseNtB4_8Database18get_multi_lap_infos_0B6_
FNDA:0,_RNCNvMNtCsdY1tzCMfrk2_17zwift_race_finder8databaseNtB4_8Database18is_route_completed0B6_
FNDA:450,_RNCNvMNtCsdY1tzCMfrk2_17zwift_race_finder8databaseNtB4_8Database20get_all_race_results0B6_
FNDA:63,_RNCNvMNtCsdY1tzCMfrk2_17zwift_race_finder8databaseNtB4_8Database26get_race_results_for_route0B6_
FNDA:237,_RNCNvMNtCsdY1tzCMfrk2_17zwift_race_finder8databaseNtB4_8Database9get_route0B6_
FNDA:0,_RNCNvNtCsdY1tzCMfrk2_17zwift_race_finder8database17get_database_path0B5_
FNDA:1,_RNvNtNtCsdY1tzCMfrk2_17zwift_race_finder8database5testss_22test_database_creation
FNDA:1,_RNvNtNtCsdY1tzCMfrk2_17zwift_race_finder8database5testss_24test_race_result_storage
FNDA:0,_RNCNvMNtCs6l7Ma75WKx0_17zwift_race_finder8databaseNtB4_8Database15get_rider_stats0B6_
FNDA:0,_RNCNvMNtCs6l7Ma75WKx0_17zwift_race_finder8databaseNtB4_8Database17seed_initial_data0B6_
FNDA:0,_RNCNvMNtCs6l7Ma75WKx0_17zwift_race_finder8databaseNtB4_8Database18get_multi_lap_info0B6_
FNDA:0,_RNCNvMNtCs6l7Ma75WKx0_17zwift_race_finder8databaseNtB4_8Database18get_multi_lap_infos_0B6_
FNDA:0,_RNCNvMNtCs6l7Ma75WKx0_17zwift_race_finder8databaseNtB4_8Database18get_unknown_routes0B6_
FNDA:0,_RNCNvMNtCs6l7Ma75WKx0_17zwift_race_finder8databaseNtB4_8Database18is_route_completed0B6_
FNDA:0,_RNCNvMNtCs6l7Ma75WKx0_17zwift_race_finder8databaseNtB4_8Database20get_completion_stats0B6_
FNDA:0,_RNCNvMNtCs6l7Ma75WKx0_17zwift_race_finder8databaseNtB4_8Database20get_completion_statss_0B6_
FNDA:0,_RNCNvMNtCs6l7Ma75WKx0_17zwift_race_finder8databaseNtB4_8Database24should_attempt_discovery0B6_
FNDA:0,_RNCNvMNtCs6l7Ma75WKx0_17zwift_race_finder8databaseNtB4_8Database26get_world_completion_stats0B6_
FNDA:0,_RNCNvMNtCs6l7Ma75WKx0_17zwift_race_finder8databaseNtB4_8Database9get_route0B6_
FNDA:0,_RNCNvNtCs6l7Ma75WKx0_17zwift_race_finder8database17get_database_path0B5_
FNDA:0,_RNvMNtCs6l7Ma75WKx0_17zwift_race_finder8databaseNtB2_8Database13create_tables
FNDA:0,_RNvMNtCs6l7Ma75WKx0_17zwift_race_finder8databaseNtB2_8Database15add_race_result
FNDA:0,_RNvMNtCs6l7Ma75WKx0_17zwift_race_finder8databaseNtB2_8Database15get_rider_stats
FNDA:0,_RNvMNtCs6l7Ma75WKx0_17zwift_race_finder8databaseNtB2_8Database17seed_initial_data
FNDA:0,_RNvMNtCs6l7Ma75WKx0_17zwift_race_finder8databaseNtB2_8Database18get_multi_lap_info
FNDA:0,_RNvMNtCs6l7Ma75WKx0_17zwift_race_finder8databaseNtB2_8Database18get_unknown_routes
FNDA:0,_RNvMNtCs6l7Ma75WKx0_17zwift_race_finder8databaseNtB2_8Database18is_route_completed
FNDA:0,_RNvMNtCs6l7Ma75WKx0_17zwift_race_finder8databaseNtB2_8Database19mark_route_complete
FNDA:0,_RNvMNtCs6l7Ma75WKx0_17zwift_race_finder8databaseNtB2_8Database20get_completion_stats
FNDA:0,_RNvMNtCs6l7Ma75WKx0_17zwift_race_finder8databaseNtB2_8Database20record_unknown_route
FNDA:0,_RNvMNtCs6l7Ma75WKx0_17zwift_race_finder8databaseNtB2_8Database21save_discovered_route
FNDA:0,_RNvMNtCs6l7Ma75WKx0_17zwift_race_finder8databaseNtB2_8Database24record_discovery_attempt
FNDA:0,_RNvMNtCs6l7Ma75WKx0_17zwift_race_finder8databaseNtB2_8Database24should_attempt_discovery
FNDA:0,_RNvMNtCs6l7Ma75WKx0_17zwift_race_finder8databaseNtB2_8Database26get_world_completion_stats
FNDA:0,_RNvMNtCs6l7Ma75WKx0_17zwift_race_finder8databaseNtB2_8Database3new
FNDA:0,_RNvMNtCs6l7Ma75WKx0_17zwift_race_finder8databaseNtB2_8Database9get_route
FNDA:0,_RNvNtCs6l7Ma75WKx0_17zwift_race_finder8database17get_database_path
FNDA:0,_RNCNvMNtCs6l7Ma75WKx0_17zwift_race_finder8databaseNtB4_8Database14get_all_routes0B6_
FNDA:0,_RNCNvMNtCs6l7Ma75WKx0_17zwift_race_finder8databaseNtB4_8Database17get_route_by_name0B6_
FNDA:0,_RNCNvMNtCs6l7Ma75WKx0_17zwift_race_finder8databaseNtB4_8Database21get_average_race_time0B6_
FNDA:0,_RNCNvMNtCs6l7Ma75WKx0_17zwift_race_finder8databaseNtB4_8Database21get_average_race_times0_0B6_
FNDA:0,_RNCNvMNtCs6l7Ma75WKx0_17zwift_race_finder8databaseNtB4_8Database21get_average_race_times_0B6_
FNDA:0,_RNCNvMNtCs6l7Ma75WKx0_17zwift_race_finder8databaseNtB4_8Database26get_race_results_for_route0B6_
FNDA:0,_RNvMNtCs6l7Ma75WKx0_17zwift_race_finder8databaseNtB2_8Database14get_all_routes
FNDA:0,_RNvMNtCs6l7Ma75WKx0_17zwift_race_finder8databaseNtB2_8Database17get_route_by_name
FNDA:0,_RNvMNtCs6l7Ma75WKx0_17zwift_race_finder8databaseNtB2_8Database21get_average_race_time
FNDA:0,_RNvMNtCs6l7Ma75WKx0_17zwift_race_finder8databaseNtB2_8Database26get_race_results_for_route
FNDA:0,_RNvMNtCs6l7Ma75WKx0_17zwift_race_finder8databaseNtB2_8Database9add_route
FNDA:0,_RNCNvMNtCs2felTZli3Ur_17zwift_race_finder8databaseNtB4_8Database14get_all_routes0B6_
FNDA:0,_RNCNvMNtCs2felTZli3Ur_17zwift_race_finder8databaseNtB4_8Database15get_rider_stats0B6_
FNDA:0,_RNCNvMNtCs2felTZli3Ur_17zwift_race_finder8databaseNtB4_8Database17get_route_by_name0B6_
FNDA:0,_RNCNvMNtCs2felTZli3Ur_17zwift_race_finder8databaseNtB4_8Database18get_multi_lap_info0B6_
FNDA:0,_RNCNvMNtCs2felTZli3Ur_17zwift_race_finder8databaseNtB4_8Database18get_multi_lap_infos_0B6_
FNDA:0,_RNCNvMNtCs2felTZli3Ur_17zwift_race_finder8databaseNtB4_8Database18get_unknown_routes0B6_
FNDA:0,_RNCNvMNtCs2felTZli3Ur_17zwift_race_finder8databaseNtB4_8Database18is_route_completed0B6_
FNDA:0,_RNCNvMNtCs2felTZli3Ur_17zwift_race_finder8databaseNtB4_8Database20get_all_race_results0B6_
FNDA:0,_RNCNvMNtCs2felTZli3Ur_17zwift_race_finder8databaseNtB4_8Database20get_completion_stats0B6_
FNDA:0,_RNCNvMNtCs2felTZli3Ur_17zwift_race_finder8databaseNtB4_8Database20get_completion_statss_0B6_
FNDA:0,_RNCNvMNtCs2felTZli3Ur_17zwift_race_finder8databaseNtB4_8Database21get_average_race_time0B6_
FNDA:0,_RNCNvMNtCs2felTZli3Ur_17zwift_race_finder8databaseNtB4_8Database21get_average_race_times0_0B6_
FNDA:0,_RNCNvMNtCs2felTZli3Ur_17zwift_race_finder8databaseNtB4_8Database21get_average_race_times_0B6_
FNDA:0,_RNCNvMNtCs2felTZli3Ur_17zwift_race_finder8databaseNtB4_8Database24should_attempt_discovery0B6_
FNDA:0,_RNCNvMNtCs2felTZli3Ur_17zwift_race_finder8databaseNtB4_8Database26get_world_completion_stats0B6_
FNDA:0,_RNvMNtCs2felTZli3Ur_17zwift_race_finder8databaseNtB2_8Database14get_all_routes
FNDA:0,_RNvMNtCs2felTZli3Ur_17zwift_race_finder8databaseNtB2_8Database15get_rider_stats
FNDA:0,_RNvMNtCs2felTZli3Ur_17zwift_race_finder8databaseNtB2_8Database17get_route_by_name
FNDA:0,_RNvMNtCs2felTZli3Ur_17zwift_race_finder8databaseNtB2_8Database18get_multi_lap_info
FNDA:0,_RNvMNtCs2felTZli3Ur_17zwift_race_finder8databaseNtB2_8Database18get_unknown_routes
FNDA:0,_RNvMNtCs2felTZli3Ur_17zwift_race_finder8databaseNtB2_8Database18is_route_completed
FNDA:0,_RNvMNtCs2felTZli3Ur_17zwift_race_finder8databaseNtB2_8Database19mark_route_complete
FNDA:0,_RNvMNtCs2felTZli3Ur_17zwift_race_finder8databaseNtB2_8Database20get_all_race_results
FNDA:0,_RNvMNtCs2felTZli3Ur_17zwift_race_finder8databaseNtB2_8Database20get_completion_stats
FNDA:0,_RNvMNtCs2felTZli3Ur_17zwift_race_finder8databaseNtB2_8Database20record_unknown_route
FNDA:0,_RNvMNtCs2felTZli3Ur_17zwift_race_finder8databaseNtB2_8Database21get_average_race_time
FNDA:0,_RNvMNtCs2felTZli3Ur_17zwift_race_finder8databaseNtB2_8Database21save_discovered_route
FNDA:0,_RNvMNtCs2felTZli3Ur_17zwift_race_finder8databaseNtB2_8Database24record_discovery_attempt
FNDA:0,_RNvMNtCs2felTZli3Ur_17zwift_race_finder8databaseNtB2_8Database24should_attempt_discovery
FNDA:0,_RNvMNtCs2felTZli3Ur_17zwift_race_finder8databaseNtB2_8Database26get_world_completion_stats
FNDA:0,_RNvMNtCs2felTZli3Ur_17zwift_race_finder8databaseNtB2_8Database9add_route
FNDA:2,_RNCNvMNtCs2felTZli3Ur_17zwift_race_finder8databaseNtB4_8Database17seed_initial_data0B6_
FNDA:62,_RNCNvMNtCs2felTZli3Ur_17zwift_race_finder8databaseNtB4_8Database26get_race_results_for_route0B6_
FNDA:1,_RNCNvMNtCs2felTZli3Ur_17zwift_race_finder8databaseNtB4_8Database9get_route0B6_
FNDA:0,_RNCNvNtCs2felTZli3Ur_17zwift_race_finder8database17get_database_path0B5_
FNDA:1,_RNvNtNtCs2felTZli3Ur_17zwift_race_finder8database5testss_22test_database_creation
FNDA:1,_RNvNtNtCs2felTZli3Ur_17zwift_race_finder8database5testss_24test_race_result_storage
FNDA:2,_RNvMNtCs2felTZli3Ur_17zwift_race_finder8databaseNtB2_8Database13create_tables
FNDA:1,_RNvMNtCs2felTZli3Ur_17zwift_race_finder8databaseNtB2_8Database15add_race_result
FNDA:2,_RNvMNtCs2felTZli3Ur_17zwift_race_finder8databaseNtB2_8Database17seed_initial_data
FNDA:1,_RNvMNtCs2felTZli3Ur_17zwift_race_finder8databaseNtB2_8Database26get_race_results_for_route
FNDA:2,_RNvMNtCs2felTZli3Ur_17zwift_race_finder8databaseNtB2_8Database3new
FNDA:1,_RNvMNtCs2felTZli3Ur_17zwift_race_finder8databaseNtB2_8Database9get_route
FNDA:2,_RNvNtCs2felTZli3Ur_17zwift_race_finder8database17get_database_path
FNF:44
FNH:21
DA:86,482
DA:87,482
DA:88,482
DA:90,482
DA:91,482
DA:92,482
DA:94,482
DA:95,482
DA:97,482
DA:98,482
DA:99,482
DA:100,482
DA:101,482
DA:102,482
DA:103,482
DA:104,482
DA:105,482
DA:106,482
DA:107,482
DA:108,482
DA:109,482
DA:110,482
DA:111,482
DA:112,482
DA:113,482
DA:114,482
DA:115,482
DA:116,482
DA:117,482
DA:118,482
DA:121,482
DA:122,482
DA:123,482
DA:124,482
DA:125,482
DA:126,482
DA:127,482
DA:128,482
DA:129,482
DA:130,482
DA:131,482
DA:132,482
DA:133,482
DA:134,482
DA:137,482
DA:138,482
DA:139,482
DA:140,482
DA:141,482
DA:142,482
DA:143,482
DA:144,482
DA:145,482
DA:146,482
DA:149,482
DA:150,482
DA:151,482
DA:152,482
DA:153,482
DA:154,482
DA:155,482
DA:156,482
DA:157,482
DA:158,482
DA:161,482
DA:162,482
DA:163,482
DA:164,482
DA:165,482
DA:166,482
DA:167,482
DA:168,482
DA:169,482
DA:170,482
DA:173,482
DA:174,482
DA:175,482
DA:176,482
DA:177,482
DA:178,482
DA:179,482
DA:180,482
DA:181,482
DA:182,482
DA:183,482
DA:184,482
DA:185,482
DA:186,482
DA:188,482
DA:189,482
DA:191,482
DA:193,482
DA:194,482
DA:195,482
DA:196,482
DA:197,482
DA:199,482
DA:200,482
DA:201,0
DA:202,0
DA:203,0
DA:204,0
DA:205,0
DA:206,0
DA:207,0
DA:208,0
DA:209,0
DA:210,0
DA:211,0
DA:212,0
DA:213,0
DA:214,0
DA:215,0
DA:217,0
DA:218,0
DA:219,0
DA:220,0
DA:221,0
DA:222,0
DA:223,0
DA:226,0
DA:227,482
DA:230,261
DA:231,261
DA:232,261
DA:233,261
DA:234,261
DA:235,261
DA:236,261
DA:237,261
DA:239,261
DA:240,238
DA:241,238
DA:242,238
DA:243,238
DA:244,238
DA:245,238
DA:246,238
DA:247,238
DA:248,238
DA:249,238
DA:250,238
DA:251,238
DA:252,238
DA:253,238
DA:255,261
DA:257,261
DA:258,261
DA:262,0
DA:263,0
DA:264,0
DA:265,0
DA:266,0
DA:267,0
DA:268,0
DA:269,0
DA:270,0
DA:271,0
DA:272,0
DA:273,0
DA:274,0
DA:275,0
DA:276,0
DA:277,0
DA:278,0
DA:279,0
DA:280,0
DA:281,0
DA:282,0
DA:283,0
DA:284,0
DA:285,0
DA:286,0
DA:290,0
DA:291,0
DA:292,0
DA:293,0
DA:294,0
DA:295,0
DA:296,0
DA:297,0
DA:298,0
DA:299,0
DA:301,0
DA:302,0
DA:303,0
DA:304,0
DA:305,0
DA:306,0
DA:307,0
DA:308,0
DA:309,0
DA:310,0
DA:311,0
DA:312,0
DA:313,0
DA:314,0
DA:315,0
DA:316,0
DA:318,0
DA:319,0
DA:321,0
DA:322,0
DA:325,2
DA:326,2
DA:327,2
DA:328,2
DA:329,2
DA:330,2
DA:331,2
DA:332,2
DA:333,2
DA:334,2
DA:335,2
DA:338,2
DA:339,2
DA:340,2
DA:341,2
DA:342,2
DA:343,2
DA:344,2
DA:345,2
DA:346,2
DA:347,2
DA:348,2
DA:349,2
DA:350,2
DA:351,2
DA:352,2
DA:356,2
DA:357,2
DA:358,2
DA:359,2
DA:360,2
DA:361,2
DA:362,2
DA:364,125
DA:365,125
DA:366,125
DA:367,125
DA:368,125
DA:369,125
DA:370,125
DA:371,125
DA:372,125
DA:374,125
DA:375,2
DA:377,2
DA:378,2
DA:382,0
DA:385,0
DA:386,0
DA:387,0
DA:388,0
DA:389,0
DA:390,0
DA:391,0
DA:392,0
DA:395,0
DA:396,0
DA:398,0
DA:399,0
DA:400,0
DA:401,0
DA:402,0
DA:403,0
DA:404,0
DA:407,0
DA:408,0
DA:412,1
DA:413,1
DA:414,1
DA:415,1
DA:416,1
DA:417,1
DA:418,1
DA:419,1
DA:421,274
DA:422,274
DA:423,274
DA:424,274
DA:425,274
DA:426,274
DA:427,274
DA:428,274
DA:429,274
DA:430,274
DA:431,274
DA:432,274
DA:433,274
DA:434,274
DA:435,274
DA:437,274
DA:439,1
DA:440,1
DA:444,2
DA:445,2
DA:446,2
DA:447,2
DA:448,2
DA:449,2
DA:451,450
DA:452,450
DA:453,450
DA:454,450
DA:455,450
DA:458,0
DA:459,0
DA:464,450
DA:465,450
DA:466,450
DA:467,450
DA:468,450
DA:469,450
DA:470,450
DA:472,450
DA:473,2
DA:475,2
DA:476,2
DA:479,0
DA:480,0
DA:481,0
DA:482,0
DA:483,0
DA:484,0
DA:486,0
DA:487,0
DA:488,0
DA:489,0
DA:491,0
DA:492,0
DA:495,111
DA:496,111
DA:497,111
DA:498,111
DA:499,111
DA:500,111
DA:501,111
DA:502,111
DA:503,111
DA:505,111
DA:506,111
DA:508,111
DA:509,111
DA:512,103
DA:514,103
DA:515,103
DA:516,103
DA:517,103
DA:518,103
DA:520,103
DA:521,22
DA:522,81
DA:525,81
DA:526,81
DA:527,81
DA:528,81
DA:529,81
DA:530,81
DA:531,81
DA:533,81
DA:534,103
DA:537,0
DA:538,0
DA:539,0
DA:540,0
DA:541,0
DA:542,0
DA:543,0
DA:544,0
DA:547,0
DA:548,0
DA:551,0
DA:552,0
DA:553,0
DA:554,0
DA:555,0
DA:556,0
DA:557,0
DA:558,0
DA:559,0
DA:560,0
DA:561,0
DA:564,0
DA:565,0
DA:566,0
DA:567,0
DA:568,0
DA:569,0
DA:570,0
DA:571,0
DA:572,0
DA:573,0
DA:576,0
DA:577,0
DA:578,0
DA:579,0
DA:580,0
DA:581,0
DA:582,0
DA:583,0
DA:584,0
DA:585,0
DA:586,0
DA:588,0
DA:589,0
DA:593,0
DA:594,0
DA:595,0
DA:596,0
DA:597,0
DA:598,0
DA:599,0
DA:600,0
DA:603,0
DA:604,0
DA:605,0
DA:606,0
DA:607,0
DA:608,0
DA:609,0
DA:610,0
DA:613,0
DA:614,0
DA:615,0
DA:616,0
DA:617,0
DA:618,0
DA:620,0
DA:621,0
DA:622,0
DA:623,0
DA:624,0
DA:626,0
DA:627,0
DA:630,0
DA:631,0
DA:632,0
DA:633,0
DA:634,0
DA:635,0
DA:636,0
DA:637,0
DA:638,0
DA:639,0
DA:641,0
DA:642,0
DA:643,0
DA:644,0
DA:645,0
DA:647,0
DA:648,0
DA:650,0
DA:651,0
DA:654,482
DA:655,482
DA:656,482
DA:657,482
DA:658,482
DA:659,482
DA:660,482
DA:661,482
DA:669,2
DA:670,2
DA:671,2
DA:672,2
DA:673,2
DA:674,2
DA:675,2
DA:676,2
DA:677,2
DA:678,2
DA:681,2
DA:682,2
DA:683,2
DA:684,2
DA:685,2
DA:686,2
DA:687,2
DA:688,2
DA:689,2
DA:690,2
DA:691,2
DA:692,2
DA:693,2
DA:694,2
DA:695,2
DA:696,2
DA:697,2
DA:698,2
DA:699,2
BRF:0
BRH:0
LF:518
LH:299
end_of_record
SF:/home/jack/tools/rust/zwift-race-finder/src/main.rs
FN:1460,_RNCNCNvCsdY1tzCMfrk2_17zwift_race_finder11print_events_00B5_
FN:814,_RNCNCNvCsdY1tzCMfrk2_17zwift_race_finder14get_user_stats00B5_
FN:1797,_RNCNCNvCsdY1tzCMfrk2_17zwift_race_finder23discover_unknown_routes00B5_
FN:2032,_RNCNCNvCsdY1tzCMfrk2_17zwift_race_finder26analyze_event_descriptions00B5_
FN:2214,_RNCNCNvCsdY1tzCMfrk2_17zwift_race_finder4main00B5_
FN:2246,_RNCNCNvCsdY1tzCMfrk2_17zwift_race_finder4main0s0_0B5_
FN:2254,_RNCNCNvCsdY1tzCMfrk2_17zwift_race_finder4main0s1_0B5_
FN:2278,_RNCNCNvCsdY1tzCMfrk2_17zwift_race_finder4main0s2_0B5_
FN:2284,_RNCNCNvCsdY1tzCMfrk2_17zwift_race_finder4main0s3_0B5_
FN:2313,_RNCNCNvCsdY1tzCMfrk2_17zwift_race_finder4main0s4_0B5_
FN:2218,_RNCNCNvCsdY1tzCMfrk2_17zwift_race_finder4main0s_0B5_
FN:1458,_RNCNvCsdY1tzCMfrk2_17zwift_race_finder11print_event0B3_
FN:1463,_RNCNvCsdY1tzCMfrk2_17zwift_race_finder11print_events0_0B3_
FN:1466,_RNCNvCsdY1tzCMfrk2_17zwift_race_finder11print_events1_0B3_
FN:1483,_RNCNvCsdY1tzCMfrk2_17zwift_race_finder11print_events2_0B3_
FN:1489,_RNCNvCsdY1tzCMfrk2_17zwift_race_finder11print_events3_0B3_
FN:1494,_RNCNvCsdY1tzCMfrk2_17zwift_race_finder11print_events4_0B3_
FN:1563,_RNCNvCsdY1tzCMfrk2_17zwift_race_finder11print_events5_0B3_
FN:1565,_RNCNvCsdY1tzCMfrk2_17zwift_race_finder11print_events6_0B3_
FN:1595,_RNCNvCsdY1tzCMfrk2_17zwift_race_finder11print_events7_0B3_
FN:1460,_RNCNvCsdY1tzCMfrk2_17zwift_race_finder11print_events_0B3_
FN:819,_RNCNvCsdY1tzCMfrk2_17zwift_race_finder12fetch_events0B3_
FN:798,_RNCNvCsdY1tzCMfrk2_17zwift_race_finder14get_user_stats0B3_
FN:1249,_RNCNvCsdY1tzCMfrk2_17zwift_race_finder18print_events_table0B3_
FN:1251,_RNCNvCsdY1tzCMfrk2_17zwift_race_finder18print_events_tables0_0B3_
FN:1252,_RNCNvCsdY1tzCMfrk2_17zwift_race_finder18print_events_tables1_0B3_
FN:1253,_RNCNvCsdY1tzCMfrk2_17zwift_race_finder18print_events_tables2_0B3_
FN:1250,_RNCNvCsdY1tzCMfrk2_17zwift_race_finder18print_events_tables_0B3_
FN:1922,_RNCNvCsdY1tzCMfrk2_17zwift_race_finder18record_race_result0B3_
FN:1924,_RNCNvCsdY1tzCMfrk2_17zwift_race_finder18record_race_results_0B3_
FN:701,_RNCNvCsdY1tzCMfrk2_17zwift_race_finder22fetch_zwiftpower_stats0B3_
FN:1787,_RNCNvCsdY1tzCMfrk2_17zwift_race_finder23discover_unknown_routes0B3_
FN:752,_RNCNvCsdY1tzCMfrk2_17zwift_race_finder23fetch_zwiftpower_public0B3_
FN:1981,_RNCNvCsdY1tzCMfrk2_17zwift_race_finder26analyze_event_descriptions0B3_
FN:2113,_RNCNvCsdY1tzCMfrk2_17zwift_race_finder4main0B3_
FN:36,_RNCNvXs0_CsdY1tzCMfrk2_17zwift_race_finderNtB7_4ArgsNtNtCs89j6SmNId1d_12clap_builder6derive14FromArgMatches20from_arg_matches_mut0B7_
FN:44,_RNCNvXs0_CsdY1tzCMfrk2_17zwift_race_finderNtB7_4ArgsNtNtCs89j6SmNId1d_12clap_builder6derive14FromArgMatches20from_arg_matches_muts0_0B7_
FN:48,_RNCNvXs0_CsdY1tzCMfrk2_17zwift_race_finderNtB7_4ArgsNtNtCs89j6SmNId1d_12clap_builder6derive14FromArgMatches20from_arg_matches_muts1_0B7_
FN:56,_RNCNvXs0_CsdY1tzCMfrk2_17zwift_race_finderNtB7_4ArgsNtNtCs89j6SmNId1d_12clap_builder6derive14FromArgMatches20from_arg_matches_muts2_0B7_
FN:60,_RNCNvXs0_CsdY1tzCMfrk2_17zwift_race_finderNtB7_4ArgsNtNtCs89j6SmNId1d_12clap_builder6derive14FromArgMatches20from_arg_matches_muts3_0B7_
FN:64,_RNCNvXs0_CsdY1tzCMfrk2_17zwift_race_finderNtB7_4ArgsNtNtCs89j6SmNId1d_12clap_builder6derive14FromArgMatches20from_arg_matches_muts4_0B7_
FN:72,_RNCNvXs0_CsdY1tzCMfrk2_17zwift_race_finderNtB7_4ArgsNtNtCs89j6SmNId1d_12clap_builder6derive14FromArgMatches20from_arg_matches_muts5_0B7_
FN:76,_RNCNvXs0_CsdY1tzCMfrk2_17zwift_race_finderNtB7_4ArgsNtNtCs89j6SmNId1d_12clap_builder6derive14FromArgMatches20from_arg_matches_muts6_0B7_
FN:80,_RNCNvXs0_CsdY1tzCMfrk2_17zwift_race_finderNtB7_4ArgsNtNtCs89j6SmNId1d_12clap_builder6derive14FromArgMatches20from_arg_matches_muts7_0B7_
FN:88,_RNCNvXs0_CsdY1tzCMfrk2_17zwift_race_finderNtB7_4ArgsNtNtCs89j6SmNId1d_12clap_builder6derive14FromArgMatches20from_arg_matches_muts8_0B7_
FN:92,_RNCNvXs0_CsdY1tzCMfrk2_17zwift_race_finderNtB7_4ArgsNtNtCs89j6SmNId1d_12clap_builder6derive14FromArgMatches20from_arg_matches_muts9_0B7_
FN:40,_RNCNvXs0_CsdY1tzCMfrk2_17zwift_race_finderNtB7_4ArgsNtNtCs89j6SmNId1d_12clap_builder6derive14FromArgMatches20from_arg_matches_muts_0B7_
FN:96,_RNCNvXs0_CsdY1tzCMfrk2_17zwift_race_finderNtB7_4ArgsNtNtCs89j6SmNId1d_12clap_builder6derive14FromArgMatches20from_arg_matches_mutsa_0B7_
FN:36,_RNCNvXs0_CsdY1tzCMfrk2_17zwift_race_finderNtB7_4ArgsNtNtCs89j6SmNId1d_12clap_builder6derive14FromArgMatches27update_from_arg_matches_mut0B7_
FN:44,_RNCNvXs0_CsdY1tzCMfrk2_17zwift_race_finderNtB7_4ArgsNtNtCs89j6SmNId1d_12clap_builder6derive14FromArgMatches27update_from_arg_matches_muts0_0B7_
FN:48,_RNCNvXs0_CsdY1tzCMfrk2_17zwift_race_finderNtB7_4ArgsNtNtCs89j6SmNId1d_12clap_builder6derive14FromArgMatches27update_from_arg_matches_muts1_0B7_
FN:56,_RNCNvXs0_CsdY1tzCMfrk2_17zwift_race_finderNtB7_4ArgsNtNtCs89j6SmNId1d_12clap_builder6derive14FromArgMatches27update_from_arg_matches_muts2_0B7_
FN:60,_RNCNvXs0_CsdY1tzCMfrk2_17zwift_race_finderNtB7_4ArgsNtNtCs89j6SmNId1d_12clap_builder6derive14FromArgMatches27update_from_arg_matches_muts3_0B7_
FN:64,_RNCNvXs0_CsdY1tzCMfrk2_17zwift_race_finderNtB7_4ArgsNtNtCs89j6SmNId1d_12clap_builder6derive14FromArgMatches27update_from_arg_matches_muts4_0B7_
FN:72,_RNCNvXs0_CsdY1tzCMfrk2_17zwift_race_finderNtB7_4ArgsNtNtCs89j6SmNId1d_12clap_builder6derive14FromArgMatches27update_from_arg_matches_muts5_0B7_
FN:76,_RNCNvXs0_CsdY1tzCMfrk2_17zwift_race_finderNtB7_4ArgsNtNtCs89j6SmNId1d_12clap_builder6derive14FromArgMatches27update_from_arg_matches_muts6_0B7_
FN:80,_RNCNvXs0_CsdY1tzCMfrk2_17zwift_race_finderNtB7_4ArgsNtNtCs89j6SmNId1d_12clap_builder6derive14FromArgMatches27update_from_arg_matches_muts7_0B7_
FN:88,_RNCNvXs0_CsdY1tzCMfrk2_17zwift_race_finderNtB7_4ArgsNtNtCs89j6SmNId1d_12clap_builder6derive14FromArgMatches27update_from_arg_matches_muts8_0B7_
FN:92,_RNCNvXs0_CsdY1tzCMfrk2_17zwift_race_finderNtB7_4ArgsNtNtCs89j6SmNId1d_12clap_builder6derive14FromArgMatches27update_from_arg_matches_muts9_0B7_
FN:40,_RNCNvXs0_CsdY1tzCMfrk2_17zwift_race_finderNtB7_4ArgsNtNtCs89j6SmNId1d_12clap_builder6derive14FromArgMatches27update_from_arg_matches_muts_0B7_
FN:96,_RNCNvXs0_CsdY1tzCMfrk2_17zwift_race_finderNtB7_4ArgsNtNtCs89j6SmNId1d_12clap_builder6derive14FromArgMatches27update_from_arg_matches_mutsa_0B7_
FN:1402,_RNvCsdY1tzCMfrk2_17zwift_race_finder11print_event
FN:819,_RNvCsdY1tzCMfrk2_17zwift_race_finder12fetch_events
FN:798,_RNvCsdY1tzCMfrk2_17zwift_race_finder14get_user_stats
FN:1229,_RNvCsdY1tzCMfrk2_17zwift_race_finder18print_events_table
FN:1914,_RNvCsdY1tzCMfrk2_17zwift_race_finder18record_race_result
FN:2055,_RNvCsdY1tzCMfrk2_17zwift_race_finder19mark_route_complete
FN:2075,_RNvCsdY1tzCMfrk2_17zwift_race_finder19show_route_progress
FN:1760,_RNvCsdY1tzCMfrk2_17zwift_race_finder19show_unknown_routes
FN:701,_RNvCsdY1tzCMfrk2_17zwift_race_finder22fetch_zwiftpower_stats
FN:1787,_RNvCsdY1tzCMfrk2_17zwift_race_finder23discover_unknown_routes
FN:752,_RNvCsdY1tzCMfrk2_17zwift_race_finder23fetch_zwiftpower_public
FN:1981,_RNvCsdY1tzCMfrk2_17zwift_race_finder26analyze_event_descriptions
FN:2113,_RNvCsdY1tzCMfrk2_17zwift_race_finder4main
FN:124,_RNvCsdY1tzCMfrk2_17zwift_race_finder13default_sport
FN:839,_RNvCsdY1tzCMfrk2_17zwift_race_finder13filter_events
FN:647,_RNvCsdY1tzCMfrk2_17zwift_race_finder14get_cache_file
FN:288,_RNvCsdY1tzCMfrk2_17zwift_race_finder14get_route_data
FN:1106,_RNvCsdY1tzCMfrk2_17zwift_race_finder15format_duration
FN:411,_RNvCsdY1tzCMfrk2_17zwift_race_finder15parse_lap_count
FN:450,_RNvCsdY1tzCMfrk2_17zwift_race_finder17format_event_type
FN:767,_RNvCsdY1tzCMfrk2_17zwift_race_finder17load_cached_stats
FN:1174,_RNvCsdY1tzCMfrk2_17zwift_race_finder17log_unknown_route
FN:1312,_RNvCsdY1tzCMfrk2_17zwift_race_finder17prepare_event_row
FN:786,_RNvCsdY1tzCMfrk2_17zwift_race_finder17save_cached_stats
FN:421,_RNvCsdY1tzCMfrk2_17zwift_race_finder18find_user_subgroup
FN:255,_RNvCsdY1tzCMfrk2_17zwift_race_finder18get_category_speed
FN:436,_RNvCsdY1tzCMfrk2_17zwift_race_finder20count_events_by_type
FN:1113,_RNvCsdY1tzCMfrk2_17zwift_race_finder20display_filter_stats
FN:128,_RNvCsdY1tzCMfrk2_17zwift_race_finder21is_racing_score_event
FN:279,_RNvCsdY1tzCMfrk2_17zwift_race_finder22get_route_data_from_db
FN:141,_RNvCsdY1tzCMfrk2_17zwift_race_finder22parse_description_data
FN:245,_RNvCsdY1tzCMfrk2_17zwift_race_finder23get_category_from_score
FN:484,_RNvCsdY1tzCMfrk2_17zwift_race_finder24parse_distance_from_name
FN:502,_RNvCsdY1tzCMfrk2_17zwift_race_finder27estimate_distance_from_name
FN:656,_RNvCsdY1tzCMfrk2_17zwift_race_finder27generate_filter_description
FN:635,_RNvCsdY1tzCMfrk2_17zwift_race_finder30estimate_duration_for_category
FN:555,_RNvCsdY1tzCMfrk2_17zwift_race_finder31estimate_duration_from_route_id
FN:563,_RNvCsdY1tzCMfrk2_17zwift_race_finder31estimate_duration_with_distance
FN:462,_RNvCsdY1tzCMfrk2_17zwift_race_finder31generate_no_results_suggestions
FN:540,_RNvCsdY1tzCMfrk2_17zwift_race_finder31get_route_difficulty_multiplier
FN:188,_RNvCsdY1tzCMfrk2_17zwift_race_finder31parse_distance_from_description
FN:527,_RNvCsdY1tzCMfrk2_17zwift_race_finder46get_route_difficulty_multiplier_from_elevation
FN:2803,_RNCNvNtCsdY1tzCMfrk2_17zwift_race_finder5testss_30test_real_zwift_api_connection0B5_
FN:2438,_RNCNvNtCsdY1tzCMfrk2_17zwift_race_finder5testss_31test_filters_out_running_events0B5_
FN:2439,_RNCNvNtCsdY1tzCMfrk2_17zwift_race_finder5testss_31test_filters_out_running_eventss_0B5_
FN:3132,_RNCNvNtCsdY1tzCMfrk2_17zwift_race_finder5testss_42test_racing_score_event_with_zero_distance0B5_
FN:3133,_RNCNvNtCsdY1tzCMfrk2_17zwift_race_finder5testss_42test_racing_score_event_with_zero_distances_0B5_
FN:900,_RNCNCNCNvCsdY1tzCMfrk2_17zwift_race_finder13filter_eventss1_000B7_
FN:912,_RNCNCNCNvCsdY1tzCMfrk2_17zwift_race_finder13filter_eventss2_000B7_
FN:1064,_RNCNCNCNvCsdY1tzCMfrk2_17zwift_race_finder13filter_eventss4_0s3_00B7_
FN:948,_RNCNCNCNvCsdY1tzCMfrk2_17zwift_race_finder13filter_eventss4_0s_00B7_
FN:948,_RNCNCNCNvCsdY1tzCMfrk2_17zwift_race_finder13filter_eventss4_0s_0s_0B7_
FN:900,_RNCNCNvCsdY1tzCMfrk2_17zwift_race_finder13filter_eventss1_00B5_
FN:912,_RNCNCNvCsdY1tzCMfrk2_17zwift_race_finder13filter_eventss2_00B5_
FN:947,_RNCNCNvCsdY1tzCMfrk2_17zwift_race_finder13filter_eventss4_00B5_
FN:977,_RNCNCNvCsdY1tzCMfrk2_17zwift_race_finder13filter_eventss4_0s0_0B5_
FN:980,_RNCNCNvCsdY1tzCMfrk2_17zwift_race_finder13filter_eventss4_0s1_0B5_
FN:1018,_RNCNCNvCsdY1tzCMfrk2_17zwift_race_finder13filter_eventss4_0s2_0B5_
FN:1052,_RNCNCNvCsdY1tzCMfrk2_17zwift_race_finder13filter_eventss4_0s3_0B5_
FN:948,_RNCNCNvCsdY1tzCMfrk2_17zwift_race_finder13filter_eventss4_0s_0B5_
FN:1096,_RNCNCNvCsdY1tzCMfrk2_17zwift_race_finder13filter_eventss6_00B5_
FN:851,_RNCNvCsdY1tzCMfrk2_17zwift_race_finder13filter_events0B3_
FN:867,_RNCNvCsdY1tzCMfrk2_17zwift_race_finder13filter_eventss0_0B3_
FN:899,_RNCNvCsdY1tzCMfrk2_17zwift_race_finder13filter_eventss1_0B3_
FN:911,_RNCNvCsdY1tzCMfrk2_17zwift_race_finder13filter_eventss2_0B3_
FN:925,_RNCNvCsdY1tzCMfrk2_17zwift_race_finder13filter_eventss3_0B3_
FN:943,_RNCNvCsdY1tzCMfrk2_17zwift_race_finder13filter_eventss4_0B3_
FN:1095,_RNCNvCsdY1tzCMfrk2_17zwift_race_finder13filter_eventss5_0B3_
FN:1096,_RNCNvCsdY1tzCMfrk2_17zwift_race_finder13filter_eventss6_0B3_
FN:859,_RNCNvCsdY1tzCMfrk2_17zwift_race_finder13filter_eventss_0B3_
FN:648,_RNCNvCsdY1tzCMfrk2_17zwift_race_finder14get_cache_file0B3_
FN:1322,_RNCNvCsdY1tzCMfrk2_17zwift_race_finder17prepare_event_row0B3_
FN:1337,_RNCNvCsdY1tzCMfrk2_17zwift_race_finder17prepare_event_rows0_0B3_
FN:1372,_RNCNvCsdY1tzCMfrk2_17zwift_race_finder17prepare_event_rows1_0B3_
FN:1383,_RNCNvCsdY1tzCMfrk2_17zwift_race_finder17prepare_event_rows2_0B3_
FN:1333,_RNCNvCsdY1tzCMfrk2_17zwift_race_finder17prepare_event_rows_0B3_
FN:429,_RNCNvCsdY1tzCMfrk2_17zwift_race_finder18find_user_subgroup0B3_
FN:445,_RNCNvCsdY1tzCMfrk2_17zwift_race_finder20count_events_by_type0B3_
FN:130,_RNCNvCsdY1tzCMfrk2_17zwift_race_finder21is_racing_score_event0B3_
FN:2388,_RNvNtCsdY1tzCMfrk2_17zwift_race_finder5tests17create_test_event
FN:2585,_RNvNtCsdY1tzCMfrk2_17zwift_race_finder5tests22get_multi_lap_distance
FN:3178,_RNvNtCsdY1tzCMfrk2_17zwift_race_finder5testss_18test_default_sport
FN:3307,_RNvNtCsdY1tzCMfrk2_17zwift_race_finder5testss_19test_get_cache_file
FN:3137,_RNvNtCsdY1tzCMfrk2_17zwift_race_finder5testss_20test_format_duration
FN:3590,_RNvNtCsdY1tzCMfrk2_17zwift_race_finder5testss_20test_parse_lap_count
FN:3489,_RNvNtCsdY1tzCMfrk2_17zwift_race_finder5testss_22test_format_event_type
FN:3387,_RNvNtCsdY1tzCMfrk2_17zwift_race_finder5testss_22test_log_unknown_route
FN:3202,_RNvNtCsdY1tzCMfrk2_17zwift_race_finder5testss_22test_prepare_event_row
FN:2461,_RNvNtCsdY1tzCMfrk2_17zwift_race_finder5testss_23test_duration_filtering
FN:3638,_RNvNtCsdY1tzCMfrk2_17zwift_race_finder5testss_23test_find_user_subgroup
FN:3808,_RNvNtCsdY1tzCMfrk2_17zwift_race_finder5testss_23test_get_category_speed
FN:3412,_RNvNtCsdY1tzCMfrk2_17zwift_race_finder5testss_25test_count_events_by_type
FN:3364,_RNvNtCsdY1tzCMfrk2_17zwift_race_finder5testss_25test_display_filter_stats
FN:2594,_RNvNtCsdY1tzCMfrk2_17zwift_race_finder5testss_25test_event_type_filtering
FN:2758,_RNvNtCsdY1tzCMfrk2_17zwift_race_finder5testss_26test_edge_case_estimations
FN:2831,_RNvNtCsdY1tzCMfrk2_17zwift_race_finder5testss_26test_is_racing_score_event
FN:3184,_RNvNtCsdY1tzCMfrk2_17zwift_race_finder5testss_27test_get_multi_lap_distance
FN:2961,_RNvNtCsdY1tzCMfrk2_17zwift_race_finder5testss_27test_parse_description_data
FN:3791,_RNvNtCsdY1tzCMfrk2_17zwift_race_finder5testss_28test_get_category_from_score
FN:2560,_RNvNtCsdY1tzCMfrk2_17zwift_race_finder5testss_29test_multi_lap_race_detection
FN:3612,_RNvNtCsdY1tzCMfrk2_17zwift_race_finder5testss_29test_parse_distance_from_name
FN:2776,_RNvNtCsdY1tzCMfrk2_17zwift_race_finder5testss_30test_database_route_validation
FN:2803,_RNvNtCsdY1tzCMfrk2_17zwift_race_finder5testss_30test_real_zwift_api_connection
FN:3821,_RNvNtCsdY1tzCMfrk2_17zwift_race_finder5testss_31test_category_logic_consistency
FN:2408,_RNvNtCsdY1tzCMfrk2_17zwift_race_finder5testss_31test_filters_out_running_events
FN:3314,_RNvNtCsdY1tzCMfrk2_17zwift_race_finder5testss_31test_load_and_save_cached_stats
FN:2649,_RNvNtCsdY1tzCMfrk2_17zwift_race_finder5testss_31test_specific_route_multipliers
FN:3156,_RNvNtCsdY1tzCMfrk2_17zwift_race_finder5testss_32test_estimate_distance_from_name
FN:3232,_RNvNtCsdY1tzCMfrk2_17zwift_race_finder5testss_32test_generate_filter_description
FN:2998,_RNvNtCsdY1tzCMfrk2_17zwift_race_finder5testss_33test_racing_score_event_filtering
FN:2443,_RNvNtCsdY1tzCMfrk2_17zwift_race_finder5testss_34test_duration_estimation_for_cat_d
FN:2495,_RNvNtCsdY1tzCMfrk2_17zwift_race_finder5testss_34test_regression_common_zwift_races
FN:3285,_RNvNtCsdY1tzCMfrk2_17zwift_race_finder5testss_35test_estimate_duration_for_category
FN:3762,_RNvNtCsdY1tzCMfrk2_17zwift_race_finder5testss_36test_get_route_difficulty_multiplier
FN:2916,_RNvNtCsdY1tzCMfrk2_17zwift_race_finder5testss_36test_parse_distance_from_description
FN:3058,_RNvNtCsdY1tzCMfrk2_17zwift_race_finder5testss_42test_racing_score_event_with_zero_distance
FN:3530,_RNvNtCsdY1tzCMfrk2_17zwift_race_finder5testss_43test_generate_no_results_suggestions_for_tt
FN:2681,_RNvNtCsdY1tzCMfrk2_17zwift_race_finder5testss_44test_route_id_regression_with_actual_results
FN:3499,_RNvNtCsdY1tzCMfrk2_17zwift_race_finder5testss_45test_generate_no_results_suggestions_for_race
FN:3560,_RNvNtCsdY1tzCMfrk2_17zwift_race_finder5testss_46test_generate_no_results_suggestions_for_other
FN:3735,_RNvNtCsdY1tzCMfrk2_17zwift_race_finder5testss_51test_get_route_difficulty_multiplier_from_elevation
FN:900,_RNCNCNCNvCs6l7Ma75WKx0_17zwift_race_finder13filter_eventss1_000B7_
FN:912,_RNCNCNCNvCs6l7Ma75WKx0_17zwift_race_finder13filter_eventss2_000B7_
FN:1064,_RNCNCNCNvCs6l7Ma75WKx0_17zwift_race_finder13filter_eventss4_0s3_00B7_
FN:948,_RNCNCNCNvCs6l7Ma75WKx0_17zwift_race_finder13filter_eventss4_0s_00B7_
FN:948,_RNCNCNCNvCs6l7Ma75WKx0_17zwift_race_finder13filter_eventss4_0s_0s_0B7_
FN:1460,_RNCNCNvCs6l7Ma75WKx0_17zwift_race_finder11print_events_00B5_
FN:900,_RNCNCNvCs6l7Ma75WKx0_17zwift_race_finder13filter_eventss1_00B5_
FN:912,_RNCNCNvCs6l7Ma75WKx0_17zwift_race_finder13filter_eventss2_00B5_
FN:947,_RNCNCNvCs6l7Ma75WKx0_17zwift_race_finder13filter_eventss4_00B5_
FN:977,_RNCNCNvCs6l7Ma75WKx0_17zwift_race_finder13filter_eventss4_0s0_0B5_
FN:980,_RNCNCNvCs6l7Ma75WKx0_17zwift_race_finder13filter_eventss4_0s1_0B5_
FN:1018,_RNCNCNvCs6l7Ma75WKx0_17zwift_race_finder13filter_eventss4_0s2_0B5_
FN:1052,_RNCNCNvCs6l7Ma75WKx0_17zwift_race_finder13filter_eventss4_0s3_0B5_
FN:948,_RNCNCNvCs6l7Ma75WKx0_17zwift_race_finder13filter_eventss4_0s_0B5_
FN:1096,_RNCNCNvCs6l7Ma75WKx0_17zwift_race_finder13filter_eventss6_00B5_
FN:814,_RNCNCNvCs6l7Ma75WKx0_17zwift_race_finder14get_user_stats00B5_
FN:1797,_RNCNCNvCs6l7Ma75WKx0_17zwift_race_finder23discover_unknown_routes00B5_
FN:2032,_RNCNCNvCs6l7Ma75WKx0_17zwift_race_finder26analyze_event_descriptions00B5_
FN:2214,_RNCNCNvCs6l7Ma75WKx0_17zwift_race_finder4main00B5_
FN:2246,_RNCNCNvCs6l7Ma75WKx0_17zwift_race_finder4main0s0_0B5_
FN:2254,_RNCNCNvCs6l7Ma75WKx0_17zwift_race_finder4main0s1_0B5_
FN:2278,_RNCNCNvCs6l7Ma75WKx0_17zwift_race_finder4main0s2_0B5_
FN:2284,_RNCNCNvCs6l7Ma75WKx0_17zwift_race_finder4main0s3_0B5_
FN:2313,_RNCNCNvCs6l7Ma75WKx0_17zwift_race_finder4main0s4_0B5_
FN:2218,_RNCNCNvCs6l7Ma75WKx0_17zwift_race_finder4main0s_0B5_
FN:1458,_RNCNvCs6l7Ma75WKx0_17zwift_race_finder11print_event0B3_
FN:1463,_RNCNvCs6l7Ma75WKx0_17zwift_race_finder11print_events0_0B3_
FN:1466,_RNCNvCs6l7Ma75WKx0_17zwift_race_finder11print_events1_0B3_
FN:1483,_RNCNvCs6l7Ma75WKx0_17zwift_race_finder11print_events2_0B3_
FN:1489,_RNCNvCs6l7Ma75WKx0_17zwift_race_finder11print_events3_0B3_
FN:1494,_RNCNvCs6l7Ma75WKx0_17zwift_race_finder11print_events4_0B3_
FN:1563,_RNCNvCs6l7Ma75WKx0_17zwift_race_finder11print_events5_0B3_
FN:1565,_RNCNvCs6l7Ma75WKx0_17zwift_race_finder11print_events6_0B3_
FN:1595,_RNCNvCs6l7Ma75WKx0_17zwift_race_finder11print_events7_0B3_
FN:1460,_RNCNvCs6l7Ma75WKx0_17zwift_race_finder11print_events_0B3_
FN:819,_RNCNvCs6l7Ma75WKx0_17zwift_race_finder12fetch_events0B3_
FN:851,_RNCNvCs6l7Ma75WKx0_17zwift_race_finder13filter_events0B3_
FN:867,_RNCNvCs6l7Ma75WKx0_17zwift_race_finder13filter_eventss0_0B3_
FN:899,_RNCNvCs6l7Ma75WKx0_17zwift_race_finder13filter_eventss1_0B3_
FN:911,_RNCNvCs6l7Ma75WKx0_17zwift_race_finder13filter_eventss2_0B3_
FN:925,_RNCNvCs6l7Ma75WKx0_17zwift_race_finder13filter_eventss3_0B3_
FN:943,_RNCNvCs6l7Ma75WKx0_17zwift_race_finder13filter_eventss4_0B3_
FN:1095,_RNCNvCs6l7Ma75WKx0_17zwift_race_finder13filter_eventss5_0B3_
FN:1096,_RNCNvCs6l7Ma75WKx0_17zwift_race_finder13filter_eventss6_0B3_
FN:859,_RNCNvCs6l7Ma75WKx0_17zwift_race_finder13filter_eventss_0B3_
FN:648,_RNCNvCs6l7Ma75WKx0_17zwift_race_finder14get_cache_file0B3_
FN:798,_RNCNvCs6l7Ma75WKx0_17zwift_race_finder14get_user_stats0B3_
FN:1322,_RNCNvCs6l7Ma75WKx0_17zwift_race_finder17prepare_event_row0B3_
FN:1337,_RNCNvCs6l7Ma75WKx0_17zwift_race_finder17prepare_event_rows0_0B3_
FN:1372,_RNCNvCs6l7Ma75WKx0_17zwift_race_finder17prepare_event_rows1_0B3_
FN:1383,_RNCNvCs6l7Ma75WKx0_17zwift_race_finder17prepare_event_rows2_0B3_
FN:1333,_RNCNvCs6l7Ma75WKx0_17zwift_race_finder17prepare_event_rows_0B3_
FN:429,_RNCNvCs6l7Ma75WKx0_17zwift_race_finder18find_user_subgroup0B3_
FN:1249,_RNCNvCs6l7Ma75WKx0_17zwift_race_finder18print_events_table0B3_
FN:1251,_RNCNvCs6l7Ma75WKx0_17zwift_race_finder18print_events_tables0_0B3_
FN:1252,_RNCNvCs6l7Ma75WKx0_17zwift_race_finder18print_events_tables1_0B3_
FN:1253,_RNCNvCs6l7Ma75WKx0_17zwift_race_finder18print_events_tables2_0B3_
FN:1250,_RNCNvCs6l7Ma75WKx0_17zwift_race_finder18print_events_tables_0B3_
FN:1922,_RNCNvCs6l7Ma75WKx0_17zwift_race_finder18record_race_result0B3_
FN:1924,_RNCNvCs6l7Ma75WKx0_17zwift_race_finder18record_race_results_0B3_
FN:445,_RNCNvCs6l7Ma75WKx0_17zwift_race_finder20count_events_by_type0B3_
FN:130,_RNCNvCs6l7Ma75WKx0_17zwift_race_finder21is_racing_score_event0B3_
FN:701,_RNCNvCs6l7Ma75WKx0_17zwift_race_finder22fetch_zwiftpower_stats0B3_
FN:1787,_RNCNvCs6l7Ma75WKx0_17zwift_race_finder23discover_unknown_routes0B3_
FN:752,_RNCNvCs6l7Ma75WKx0_17zwift_race_finder23fetch_zwiftpower_public0B3_
FN:1981,_RNCNvCs6l7Ma75WKx0_17zwift_race_finder26analyze_event_descriptions0B3_
FN:2113,_RNCNvCs6l7Ma75WKx0_17zwift_race_finder4main0B3_
FN:36,_RNCNvXs0_Cs6l7Ma75WKx0_17zwift_race_finderNtB7_4ArgsNtNtCs89j6SmNId1d_12clap_builder6derive14FromArgMatches20from_arg_matches_mut0B7_
FN:44,_RNCNvXs0_Cs6l7Ma75WKx0_17zwift_race_finderNtB7_4ArgsNtNtCs89j6SmNId1d_12clap_builder6derive14FromArgMatches20from_arg_matches_muts0_0B7_
FN:48,_RNCNvXs0_Cs6l7Ma75WKx0_17zwift_race_finderNtB7_4ArgsNtNtCs89j6SmNId1d_12clap_builder6derive14FromArgMatches20from_arg_matches_muts1_0B7_
FN:56,_RNCNvXs0_Cs6l7Ma75WKx0_17zwift_race_finderNtB7_4ArgsNtNtCs89j6SmNId1d_12clap_builder6derive14FromArgMatches20from_arg_matches_muts2_0B7_
FN:60,_RNCNvXs0_Cs6l7Ma75WKx0_17zwift_race_finderNtB7_4ArgsNtNtCs89j6SmNId1d_12clap_builder6derive14FromArgMatches20from_arg_matches_muts3_0B7_
FN:64,_RNCNvXs0_Cs6l7Ma75WKx0_17zwift_race_finderNtB7_4ArgsNtNtCs89j6SmNId1d_12clap_builder6derive14FromArgMatches20from_arg_matches_muts4_0B7_
FN:72,_RNCNvXs0_Cs6l7Ma75WKx0_17zwift_race_finderNtB7_4ArgsNtNtCs89j6SmNId1d_12clap_builder6derive14FromArgMatches20from_arg_matches_muts5_0B7_
FN:76,_RNCNvXs0_Cs6l7Ma75WKx0_17zwift_race_finderNtB7_4ArgsNtNtCs89j6SmNId1d_12clap_builder6derive14FromArgMatches20from_arg_matches_muts6_0B7_
FN:80,_RNCNvXs0_Cs6l7Ma75WKx0_17zwift_race_finderNtB7_4ArgsNtNtCs89j6SmNId1d_12clap_builder6derive14FromArgMatches20from_arg_matches_muts7_0B7_
FN:88,_RNCNvXs0_Cs6l7Ma75WKx0_17zwift_race_finderNtB7_4ArgsNtNtCs89j6SmNId1d_12clap_builder6derive14FromArgMatches20from_arg_matches_muts8_0B7_
FN:92,_RNCNvXs0_Cs6l7Ma75WKx0_17zwift_race_finderNtB7_4ArgsNtNtCs89j6SmNId1d_12clap_builder6derive14FromArgMatches20from_arg_matches_muts9_0B7_
FN:40,_RNCNvXs0_Cs6l7Ma75WKx0_17zwift_race_finderNtB7_4ArgsNtNtCs89j6SmNId1d_12clap_builder6derive14FromArgMatches20from_arg_matches_muts_0B7_
FN:96,_RNCNvXs0_Cs6l7Ma75WKx0_17zwift_race_finderNtB7_4ArgsNtNtCs89j6SmNId1d_12clap_builder6derive14FromArgMatches20from_arg_matches_mutsa_0B7_
FN:36,_RNCNvXs0_Cs6l7Ma75WKx0_17zwift_race_finderNtB7_4ArgsNtNtCs89j6SmNId1d_12clap_builder6derive14FromArgMatches27update_from_arg_matches_mut0B7_
FN:44,_RNCNvXs0_Cs6l7Ma75WKx0_17zwift_race_finderNtB7_4ArgsNtNtCs89j6SmNId1d_12clap_builder6derive14FromArgMatches27update_from_arg_matches_muts0_0B7_
FN:48,_RNCNvXs0_Cs6l7Ma75WKx0_17zwift_race_finderNtB7_4ArgsNtNtCs89j6SmNId1d_12clap_builder6derive14FromArgMatches27update_from_arg_matches_muts1_0B7_
FN:56,_RNCNvXs0_Cs6l7Ma75WKx0_17zwift_race_finderNtB7_4ArgsNtNtCs89j6SmNId1d_12clap_builder6derive14FromArgMatches27update_from_arg_matches_muts2_0B7_
FN:60,_RNCNvXs0_Cs6l7Ma75WKx0_17zwift_race_finderNtB7_4ArgsNtNtCs89j6SmNId1d_12clap_builder6derive14FromArgMatches27update_from_arg_matches_muts3_0B7_
FN:64,_RNCNvXs0_Cs6l7Ma75WKx0_17zwift_race_finderNtB7_4ArgsNtNtCs89j6SmNId1d_12clap_builder6derive14FromArgMatches27update_from_arg_matches_muts4_0B7_
FN:72,_RNCNvXs0_Cs6l7Ma75WKx0_17zwift_race_finderNtB7_4ArgsNtNtCs89j6SmNId1d_12clap_builder6derive14FromArgMatches27update_from_arg_matches_muts5_0B7_
FN:76,_RNCNvXs0_Cs6l7Ma75WKx0_17zwift_race_finderNtB7_4ArgsNtNtCs89j6SmNId1d_12clap_builder6derive14FromArgMatches27update_from_arg_matches_muts6_0B7_
FN:80,_RNCNvXs0_Cs6l7Ma75WKx0_17zwift_race_finderNtB7_4ArgsNtNtCs89j6SmNId1d_12clap_builder6derive14FromArgMatches27update_from_arg_matches_muts7_0B7_
FN:88,_RNCNvXs0_Cs6l7Ma75WKx0_17zwift_race_finderNtB7_4ArgsNtNtCs89j6SmNId1d_12clap_builder6derive14FromArgMatches27update_from_arg_matches_muts8_0B7_
FN:92,_RNCNvXs0_Cs6l7Ma75WKx0_17zwift_race_finderNtB7_4ArgsNtNtCs89j6SmNId1d_12clap_builder6derive14FromArgMatches27update_from_arg_matches_muts9_0B7_
FN:40,_RNCNvXs0_Cs6l7Ma75WKx0_17zwift_race_finderNtB7_4ArgsNtNtCs89j6SmNId1d_12clap_builder6derive14FromArgMatches27update_from_arg_matches_muts_0B7_
FN:96,_RNCNvXs0_Cs6l7Ma75WKx0_17zwift_race_finderNtB7_4ArgsNtNtCs89j6SmNId1d_12clap_builder6derive14FromArgMatches27update_from_arg_matches_mutsa_0B7_
FN:1402,_RNvCs6l7Ma75WKx0_17zwift_race_finder11print_event
FN:819,_RNvCs6l7Ma75WKx0_17zwift_race_finder12fetch_events
FN:124,_RNvCs6l7Ma75WKx0_17zwift_race_finder13default_sport
FN:839,_RNvCs6l7Ma75WKx0_17zwift_race_finder13filter_events
FN:647,_RNvCs6l7Ma75WKx0_17zwift_race_finder14get_cache_file
FN:288,_RNvCs6l7Ma75WKx0_17zwift_race_finder14get_route_data
FN:798,_RNvCs6l7Ma75WKx0_17zwift_race_finder14get_user_stats
FN:1106,_RNvCs6l7Ma75WKx0_17zwift_race_finder15format_duration
FN:450,_RNvCs6l7Ma75WKx0_17zwift_race_finder17format_event_type
FN:767,_RNvCs6l7Ma75WKx0_17zwift_race_finder17load_cached_stats
FN:1174,_RNvCs6l7Ma75WKx0_17zwift_race_finder17log_unknown_route
FN:1312,_RNvCs6l7Ma75WKx0_17zwift_race_finder17prepare_event_row
FN:786,_RNvCs6l7Ma75WKx0_17zwift_race_finder17save_cached_stats
FN:421,_RNvCs6l7Ma75WKx0_17zwift_race_finder18find_user_subgroup
FN:255,_RNvCs6l7Ma75WKx0_17zwift_race_finder18get_category_speed
FN:1229,_RNvCs6l7Ma75WKx0_17zwift_race_finder18print_events_table
FN:1914,_RNvCs6l7Ma75WKx0_17zwift_race_finder18record_race_result
FN:2055,_RNvCs6l7Ma75WKx0_17zwift_race_finder19mark_route_complete
FN:2075,_RNvCs6l7Ma75WKx0_17zwift_race_finder19show_route_progress
FN:1760,_RNvCs6l7Ma75WKx0_17zwift_race_finder19show_unknown_routes
FN:436,_RNvCs6l7Ma75WKx0_17zwift_race_finder20count_events_by_type
FN:1113,_RNvCs6l7Ma75WKx0_17zwift_race_finder20display_filter_stats
FN:128,_RNvCs6l7Ma75WKx0_17zwift_race_finder21is_racing_score_event
FN:701,_RNvCs6l7Ma75WKx0_17zwift_race_finder22fetch_zwiftpower_stats
FN:279,_RNvCs6l7Ma75WKx0_17zwift_race_finder22get_route_data_from_db
FN:141,_RNvCs6l7Ma75WKx0_17zwift_race_finder22parse_description_data
FN:1787,_RNvCs6l7Ma75WKx0_17zwift_race_finder23discover_unknown_routes
FN:752,_RNvCs6l7Ma75WKx0_17zwift_race_finder23fetch_zwiftpower_public
FN:245,_RNvCs6l7Ma75WKx0_17zwift_race_finder23get_category_from_score
FN:484,_RNvCs6l7Ma75WKx0_17zwift_race_finder24parse_distance_from_name
FN:1981,_RNvCs6l7Ma75WKx0_17zwift_race_finder26analyze_event_descriptions
FN:502,_RNvCs6l7Ma75WKx0_17zwift_race_finder27estimate_distance_from_name
FN:656,_RNvCs6l7Ma75WKx0_17zwift_race_finder27generate_filter_description
FN:635,_RNvCs6l7Ma75WKx0_17zwift_race_finder30estimate_duration_for_category
FN:555,_RNvCs6l7Ma75WKx0_17zwift_race_finder31estimate_duration_from_route_id
FN:563,_RNvCs6l7Ma75WKx0_17zwift_race_finder31estimate_duration_with_distance
FN:462,_RNvCs6l7Ma75WKx0_17zwift_race_finder31generate_no_results_suggestions
FN:540,_RNvCs6l7Ma75WKx0_17zwift_race_finder31get_route_difficulty_multiplier
FN:188,_RNvCs6l7Ma75WKx0_17zwift_race_finder31parse_distance_from_description
FN:527,_RNvCs6l7Ma75WKx0_17zwift_race_finder46get_route_difficulty_multiplier_from_elevation
FN:2113,_RNvCs6l7Ma75WKx0_17zwift_race_finder4main
FNDA:0,_RNCNCNvCsdY1tzCMfrk2_17zwift_race_finder11print_events_00B5_
FNDA:0,_RNCNCNvCsdY1tzCMfrk2_17zwift_race_finder14get_user_stats00B5_
FNDA:0,_RNCNCNvCsdY1tzCMfrk2_17zwift_race_finder23discover_unknown_routes00B5_
FNDA:0,_RNCNCNvCsdY1tzCMfrk2_17zwift_race_finder26analyze_event_descriptions00B5_
FNDA:0,_RNCNCNvCsdY1tzCMfrk2_17zwift_race_finder4main00B5_
FNDA:0,_RNCNCNvCsdY1tzCMfrk2_17zwift_race_finder4main0s0_0B5_
FNDA:0,_RNCNCNvCsdY1tzCMfrk2_17zwift_race_finder4main0s1_0B5_
FNDA:0,_RNCNCNvCsdY1tzCMfrk2_17zwift_race_finder4main0s2_0B5_
FNDA:0,_RNCNCNvCsdY1tzCMfrk2_17zwift_race_finder4main0s3_0B5_
FNDA:0,_RNCNCNvCsdY1tzCMfrk2_17zwift_race_finder4main0s4_0B5_
FNDA:0,_RNCNCNvCsdY1tzCMfrk2_17zwift_race_finder4main0s_0B5_
FNDA:0,_RNCNvCsdY1tzCMfrk2_17zwift_race_finder11print_event0B3_
FNDA:0,_RNCNvCsdY1tzCMfrk2_17zwift_race_finder11print_events0_0B3_
FNDA:0,_RNCNvCsdY1tzCMfrk2_17zwift_race_finder11print_events1_0B3_
FNDA:0,_RNCNvCsdY1tzCMfrk2_17zwift_race_finder11print_events2_0B3_
FNDA:0,_RNCNvCsdY1tzCMfrk2_17zwift_race_finder11print_events3_0B3_
FNDA:0,_RNCNvCsdY1tzCMfrk2_17zwift_race_finder11print_events4_0B3_
FNDA:0,_RNCNvCsdY1tzCMfrk2_17zwift_race_finder11print_events5_0B3_
FNDA:0,_RNCNvCsdY1tzCMfrk2_17zwift_race_finder11print_events6_0B3_
FNDA:0,_RNCNvCsdY1tzCMfrk2_17zwift_race_finder11print_events7_0B3_
FNDA:0,_RNCNvCsdY1tzCMfrk2_17zwift_race_finder11print_events_0B3_
FNDA:0,_RNCNvCsdY1tzCMfrk2_17zwift_race_finder12fetch_events0B3_
FNDA:0,_RNCNvCsdY1tzCMfrk2_17zwift_race_finder14get_user_stats0B3_
FNDA:0,_RNCNvCsdY1tzCMfrk2_17zwift_race_finder18print_events_table0B3_
FNDA:0,_RNCNvCsdY1tzCMfrk2_17zwift_race_finder18print_events_tables0_0B3_
FNDA:0,_RNCNvCsdY1tzCMfrk2_17zwift_race_finder18print_events_tables1_0B3_
FNDA:0,_RNCNvCsdY1tzCMfrk2_17zwift_race_finder18print_events_tables2_0B3_
FNDA:0,_RNCNvCsdY1tzCMfrk2_17zwift_race_finder18print_events_tables_0B3_
FNDA:0,_RNCNvCsdY1tzCMfrk2_17zwift_race_finder18record_race_result0B3_
FNDA:0,_RNCNvCsdY1tzCMfrk2_17zwift_race_finder18record_race_results_0B3_
FNDA:0,_RNCNvCsdY1tzCMfrk2_17zwift_race_finder22fetch_zwiftpower_stats0B3_
FNDA:0,_RNCNvCsdY1tzCMfrk2_17zwift_race_finder23discover_unknown_routes0B3_
FNDA:0,_RNCNvCsdY1tzCMfrk2_17zwift_race_finder23fetch_zwiftpower_public0B3_
FNDA:0,_RNCNvCsdY1tzCMfrk2_17zwift_race_finder26analyze_event_descriptions0B3_
FNDA:0,_RNCNvCsdY1tzCMfrk2_17zwift_race_finder4main0B3_
FNDA:0,_RNCNvXs0_CsdY1tzCMfrk2_17zwift_race_finderNtB7_4ArgsNtNtCs89j6SmNId1d_12clap_builder6derive14FromArgMatches20from_arg_matches_mut0B7_
FNDA:0,_RNCNvXs0_CsdY1tzCMfrk2_17zwift_race_finderNtB7_4ArgsNtNtCs89j6SmNId1d_12clap_builder6derive14FromArgMatches20from_arg_matches_muts0_0B7_
FNDA:0,_RNCNvXs0_CsdY1tzCMfrk2_17zwift_race_finderNtB7_4ArgsNtNtCs89j6SmNId1d_12clap_builder6derive14FromArgMatches20from_arg_matches_muts1_0B7_
FNDA:0,_RNCNvXs0_CsdY1tzCMfrk2_17zwift_race_finderNtB7_4ArgsNtNtCs89j6SmNId1d_12clap_builder6derive14FromArgMatches20from_arg_matches_muts2_0B7_
FNDA:0,_RNCNvXs0_CsdY1tzCMfrk2_17zwift_race_finderNtB7_4ArgsNtNtCs89j6SmNId1d_12clap_builder6derive14FromArgMatches20from_arg_matches_muts3_0B7_
FNDA:0,_RNCNvXs0_CsdY1tzCMfrk2_17zwift_race_finderNtB7_4ArgsNtNtCs89j6SmNId1d_12clap_builder6derive14FromArgMatches20from_arg_matches_muts4_0B7_
FNDA:0,_RNCNvXs0_CsdY1tzCMfrk2_17zwift_race_finderNtB7_4ArgsNtNtCs89j6SmNId1d_12clap_builder6derive14FromArgMatches20from_arg_matches_muts5_0B7_
FNDA:0,_RNCNvXs0_CsdY1tzCMfrk2_17zwift_race_finderNtB7_4ArgsNtNtCs89j6SmNId1d_12clap_builder6derive14FromArgMatches20from_arg_matches_muts6_0B7_
FNDA:0,_RNCNvXs0_CsdY1tzCMfrk2_17zwift_race_finderNtB7_4ArgsNtNtCs89j6SmNId1d_12clap_builder6derive14FromArgMatches20from_arg_matches_muts7_0B7_
FNDA:0,_RNCNvXs0_CsdY1tzCMfrk2_17zwift_race_finderNtB7_4ArgsNtNtCs89j6SmNId1d_12clap_builder6derive14FromArgMatches20from_arg_matches_muts8_0B7_
FNDA:0,_RNCNvXs0_CsdY1tzCMfrk2_17zwift_race_finderNtB7_4ArgsNtNtCs89j6SmNId1d_12clap_builder6derive14FromArgMatches20from_arg_matches_muts9_0B7_
FNDA:0,_RNCNvXs0_CsdY1tzCMfrk2_17zwift_race_finderNtB7_4ArgsNtNtCs89j6SmNId1d_12clap_builder6derive14FromArgMatches20from_arg_matches_muts_0B7_
FNDA:0,_RNCNvXs0_CsdY1tzCMfrk2_17zwift_race_finderNtB7_4ArgsNtNtCs89j6SmNId1d_12clap_builder6derive14FromArgMatches20from_arg_matches_mutsa_0B7_
FNDA:0,_RNCNvXs0_CsdY1tzCMfrk2_17zwift_race_finderNtB7_4ArgsNtNtCs89j6SmNId1d_12clap_builder6derive14FromArgMatches27update_from_arg_matches_mut0B7_
FNDA:0,_RNCNvXs0_CsdY1tzCMfrk2_17zwift_race_finderNtB7_4ArgsNtNtCs89j6SmNId1d_12clap_builder6derive14FromArgMatches27update_from_arg_matches_muts0_0B7_
FNDA:0,_RNCNvXs0_CsdY1tzCMfrk2_17zwift_race_finderNtB7_4ArgsNtNtCs89j6SmNId1d_12clap_builder6derive14FromArgMatches27update_from_arg_matches_muts1_0B7_
FNDA:0,_RNCNvXs0_CsdY1tzCMfrk2_17zwift_race_finderNtB7_4ArgsNtNtCs89j6SmNId1d_12clap_builder6derive14FromArgMatches27update_from_arg_matches_muts2_0B7_
FNDA:0,_RNCNvXs0_CsdY1tzCMfrk2_17zwift_race_finderNtB7_4ArgsNtNtCs89j6SmNId1d_12clap_builder6derive14FromArgMatches27update_from_arg_matches_muts3_0B7_
FNDA:0,_RNCNvXs0_CsdY1tzCMfrk2_17zwift_race_finderNtB7_4ArgsNtNtCs89j6SmNId1d_12clap_builder6derive14FromArgMatches27update_from_arg_matches_muts4_0B7_
FNDA:0,_RNCNvXs0_CsdY1tzCMfrk2_17zwift_race_finderNtB7_4ArgsNtNtCs89j6SmNId1d_12clap_builder6derive14FromArgMatches27update_from_arg_matches_muts5_0B7_
FNDA:0,_RNCNvXs0_CsdY1tzCMfrk2_17zwift_race_finderNtB7_4ArgsNtNtCs89j6SmNId1d_12clap_builder6derive14FromArgMatches27update_from_arg_matches_muts6_0B7_
FNDA:0,_RNCNvXs0_CsdY1tzCMfrk2_17zwift_race_finderNtB7_4ArgsNtNtCs89j6SmNId1d_12clap_builder6derive14FromArgMatches27update_from_arg_matches_muts7_0B7_
FNDA:0,_RNCNvXs0_CsdY1tzCMfrk2_17zwift_race_finderNtB7_4ArgsNtNtCs89j6SmNId1d_12clap_builder6derive14FromArgMatches27update_from_arg_matches_muts8_0B7_
FNDA:0,_RNCNvXs0_CsdY1tzCMfrk2_17zwift_race_finderNtB7_4ArgsNtNtCs89j6SmNId1d_12clap_builder6derive14FromArgMatches27update_from_arg_matches_muts9_0B7_
FNDA:0,_RNCNvXs0_CsdY1tzCMfrk2_17zwift_race_finderNtB7_4ArgsNtNtCs89j6SmNId1d_12clap_builder6derive14FromArgMatches27update_from_arg_matches_muts_0B7_
FNDA:0,_RNCNvXs0_CsdY1tzCMfrk2_17zwift_race_finderNtB7_4ArgsNtNtCs89j6SmNId1d_12clap_builder6derive14FromArgMatches27update_from_arg_matches_mutsa_0B7_
FNDA:0,_RNvCsdY1tzCMfrk2_17zwift_race_finder11print_event
FNDA:0,_RNvCsdY1tzCMfrk2_17zwift_race_finder12fetch_events
FNDA:0,_RNvCsdY1tzCMfrk2_17zwift_race_finder14get_user_stats
FNDA:0,_RNvCsdY1tzCMfrk2_17zwift_race_finder18print_events_table
FNDA:0,_RNvCsdY1tzCMfrk2_17zwift_race_finder18record_race_result
FNDA:0,_RNvCsdY1tzCMfrk2_17zwift_race_finder19mark_route_complete
FNDA:0,_RNvCsdY1tzCMfrk2_17zwift_race_finder19show_route_progress
FNDA:0,_RNvCsdY1tzCMfrk2_17zwift_race_finder19show_unknown_routes
FNDA:0,_RNvCsdY1tzCMfrk2_17zwift_race_finder22fetch_zwiftpower_stats
FNDA:0,_RNvCsdY1tzCMfrk2_17zwift_race_finder23discover_unknown_routes
FNDA:0,_RNvCsdY1tzCMfrk2_17zwift_race_finder23fetch_zwiftpower_public
FNDA:0,_RNvCsdY1tzCMfrk2_17zwift_race_finder26analyze_event_descriptions
FNDA:0,_RNvCsdY1tzCMfrk2_17zwift_race_finder4main
FNDA:1,_RNvCsdY1tzCMfrk2_17zwift_race_finder13default_sport
FNDA:7,_RNvCsdY1tzCMfrk2_17zwift_race_finder13filter_events
FNDA:5,_RNvCsdY1tzCMfrk2_17zwift_race_finder14get_cache_file
FNDA:259,_RNvCsdY1tzCMfrk2_17zwift_race_finder14get_route_data
FNDA:13,_RNvCsdY1tzCMfrk2_17zwift_race_finder15format_duration
FNDA:24,_RNvCsdY1tzCMfrk2_17zwift_race_finder15parse_lap_count
FNDA:6,_RNvCsdY1tzCMfrk2_17zwift_race_finder17format_event_type
FNDA:3,_RNvCsdY1tzCMfrk2_17zwift_race_finder17load_cached_stats
FNDA:2,_RNvCsdY1tzCMfrk2_17zwift_race_finder17log_unknown_route
FNDA:1,_RNvCsdY1tzCMfrk2_17zwift_race_finder17prepare_event_row
FNDA:1,_RNvCsdY1tzCMfrk2_17zwift_race_finder17save_cached_stats
FNDA:15,_RNvCsdY1tzCMfrk2_17zwift_race_finder18find_user_subgroup
FNDA:156,_RNvCsdY1tzCMfrk2_17zwift_race_finder18get_category_speed
FNDA:1,_RNvCsdY1tzCMfrk2_17zwift_race_finder20count_events_by_type
FNDA:2,_RNvCsdY1tzCMfrk2_17zwift_race_finder20display_filter_stats
FNDA:6,_RNvCsdY1tzCMfrk2_17zwift_race_finder21is_racing_score_event
FNDA:259,_RNvCsdY1tzCMfrk2_17zwift_race_finder22get_route_data_from_db
FNDA:5,_RNvCsdY1tzCMfrk2_17zwift_race_finder22parse_description_data
FNDA:176,_RNvCsdY1tzCMfrk2_17zwift_race_finder23get_category_from_score
FNDA:149,_RNvCsdY1tzCMfrk2_17zwift_race_finder24parse_distance_from_name
FNDA:11,_RNvCsdY1tzCMfrk2_17zwift_race_finder27estimate_distance_from_name
FNDA:4,_RNvCsdY1tzCMfrk2_17zwift_race_finder27generate_filter_description
FNDA:30,_RNvCsdY1tzCMfrk2_17zwift_race_finder30estimate_duration_for_category
FNDA:110,_RNvCsdY1tzCMfrk2_17zwift_race_finder31estimate_duration_from_route_id
FNDA:127,_RNvCsdY1tzCMfrk2_17zwift_race_finder31estimate_duration_with_distance
FNDA:3,_RNvCsdY1tzCMfrk2_17zwift_race_finder31generate_no_results_suggestions
FNDA:46,_RNvCsdY1tzCMfrk2_17zwift_race_finder31get_route_difficulty_multiplier
FNDA:16,_RNvCsdY1tzCMfrk2_17zwift_race_finder31parse_distance_from_description
FNDA:123,_RNvCsdY1tzCMfrk2_17zwift_race_finder46get_route_difficulty_multiplier_from_elevation
FNDA:0,_RNCNvNtCsdY1tzCMfrk2_17zwift_race_finder5testss_30test_real_zwift_api_connection0B5_
FNDA:2,_RNCNvNtCsdY1tzCMfrk2_17zwift_race_finder5testss_31test_filters_out_running_events0B5_
FNDA:2,_RNCNvNtCsdY1tzCMfrk2_17zwift_race_finder5testss_31test_filters_out_running_eventss_0B5_
FNDA:1,_RNCNvNtCsdY1tzCMfrk2_17zwift_race_finder5testss_42test_racing_score_event_with_zero_distance0B5_
FNDA:2,_RNCNvNtCsdY1tzCMfrk2_17zwift_race_finder5testss_42test_racing_score_event_with_zero_distances_0B5_
FNDA:0,_RNCNCNCNvCsdY1tzCMfrk2_17zwift_race_finder13filter_eventss1_000B7_
FNDA:0,_RNCNCNCNvCsdY1tzCMfrk2_17zwift_race_finder13filter_eventss2_000B7_
FNDA:0,_RNCNCNCNvCsdY1tzCMfrk2_17zwift_race_finder13filter_eventss4_0s3_00B7_
FNDA:0,_RNCNCNCNvCsdY1tzCMfrk2_17zwift_race_finder13filter_eventss4_0s_00B7_
FNDA:0,_RNCNCNCNvCsdY1tzCMfrk2_17zwift_race_finder13filter_eventss4_0s_0s_0B7_
FNDA:0,_RNCNCNvCsdY1tzCMfrk2_17zwift_race_finder13filter_eventss1_00B5_
FNDA:0,_RNCNCNvCsdY1tzCMfrk2_17zwift_race_finder13filter_eventss2_00B5_
FNDA:0,_RNCNCNvCsdY1tzCMfrk2_17zwift_race_finder13filter_eventss4_00B5_
FNDA:0,_RNCNCNvCsdY1tzCMfrk2_17zwift_race_finder13filter_eventss4_0s0_0B5_
FNDA:1,_RNCNCNvCsdY1tzCMfrk2_17zwift_race_finder13filter_eventss4_0s1_0B5_
FNDA:11,_RNCNCNvCsdY1tzCMfrk2_17zwift_race_finder13filter_eventss4_0s2_0B5_
FNDA:0,_RNCNCNvCsdY1tzCMfrk2_17zwift_race_finder13filter_eventss4_0s3_0B5_
FNDA:11,_RNCNCNvCsdY1tzCMfrk2_17zwift_race_finder13filter_eventss4_0s_0B5_
FNDA:2,_RNCNCNvCsdY1tzCMfrk2_17zwift_race_finder13filter_eventss6_00B5_
FNDA:21,_RNCNvCsdY1tzCMfrk2_17zwift_race_finder13filter_events0B3_
FNDA:20,_RNCNvCsdY1tzCMfrk2_17zwift_race_finder13filter_eventss0_0B3_
FNDA:0,_RNCNvCsdY1tzCMfrk2_17zwift_race_finder13filter_eventss1_0B3_
FNDA:0,_RNCNvCsdY1tzCMfrk2_17zwift_race_finder13filter_eventss2_0B3_
FNDA:0,_RNCNvCsdY1tzCMfrk2_17zwift_race_finder13filter_eventss3_0B3_
FNDA:11,_RNCNvCsdY1tzCMfrk2_17zwift_race_finder13filter_eventss4_0B3_
FNDA:9,_RNCNvCsdY1tzCMfrk2_17zwift_race_finder13filter_eventss5_0B3_
FNDA:2,_RNCNvCsdY1tzCMfrk2_17zwift_race_finder13filter_eventss6_0B3_
FNDA:20,_RNCNvCsdY1tzCMfrk2_17zwift_race_finder13filter_eventss_0B3_
FNDA:0,_RNCNvCsdY1tzCMfrk2_17zwift_race_finder14get_cache_file0B3_
FNDA:0,_RNCNvCsdY1tzCMfrk2_17zwift_race_finder17prepare_event_row0B3_
FNDA:0,_RNCNvCsdY1tzCMfrk2_17zwift_race_finder17prepare_event_rows0_0B3_
FNDA:1,_RNCNvCsdY1tzCMfrk2_17zwift_race_finder17prepare_event_rows1_0B3_
FNDA:0,_RNCNvCsdY1tzCMfrk2_17zwift_race_finder17prepare_event_rows2_0B3_
FNDA:0,_RNCNvCsdY1tzCMfrk2_17zwift_race_finder17prepare_event_rows_0B3_
FNDA:35,_RNCNvCsdY1tzCMfrk2_17zwift_race_finder18find_user_subgroup0B3_
FNDA:2,_RNCNvCsdY1tzCMfrk2_17zwift_race_finder20count_events_by_type0B3_
FNDA:5,_RNCNvCsdY1tzCMfrk2_17zwift_race_finder21is_racing_score_event0B3_
FNDA:10,_RNvNtCsdY1tzCMfrk2_17zwift_race_finder5tests17create_test_event
FNDA:9,_RNvNtCsdY1tzCMfrk2_17zwift_race_finder5tests22get_multi_lap_distance
FNDA:1,_RNvNtCsdY1tzCMfrk2_17zwift_race_finder5testss_18test_default_sport
FNDA:1,_RNvNtCsdY1tzCMfrk2_17zwift_race_finder5testss_19test_get_cache_file
FNDA:1,_RNvNtCsdY1tzCMfrk2_17zwift_race_finder5testss_20test_format_duration
FNDA:1,_RNvNtCsdY1tzCMfrk2_17zwift_race_finder5testss_20test_parse_lap_count
FNDA:1,_RNvNtCsdY1tzCMfrk2_17zwift_race_finder5testss_22test_format_event_type
FNDA:1,_RNvNtCsdY1tzCMfrk2_17zwift_race_finder5testss_22test_log_unknown_route
FNDA:1,_RNvNtCsdY1tzCMfrk2_17zwift_race_finder5testss_22test_prepare_event_row
FNDA:1,_RNvNtCsdY1tzCMfrk2_17zwift_race_finder5testss_23test_duration_filtering
FNDA:1,_RNvNtCsdY1tzCMfrk2_17zwift_race_finder5testss_23test_find_user_subgroup
FNDA:1,_RNvNtCsdY1tzCMfrk2_17zwift_race_finder5testss_23test_get_category_speed
FNDA:1,_RNvNtCsdY1tzCMfrk2_17zwift_race_finder5testss_25test_count_events_by_type
FNDA:1,_RNvNtCsdY1tzCMfrk2_17zwift_race_finder5testss_25test_display_filter_stats
FNDA:1,_RNvNtCsdY1tzCMfrk2_17zwift_race_finder5testss_25test_event_type_filtering
FNDA:1,_RNvNtCsdY1tzCMfrk2_17zwift_race_finder5testss_26test_edge_case_estimations
FNDA:1,_RNvNtCsdY1tzCMfrk2_17zwift_race_finder5testss_26test_is_racing_score_event
FNDA:1,_RNvNtCsdY1tzCMfrk2_17zwift_race_finder5testss_27test_get_multi_lap_distance
FNDA:1,_RNvNtCsdY1tzCMfrk2_17zwift_race_finder5testss_27test_parse_description_data
FNDA:1,_RNvNtCsdY1tzCMfrk2_17zwift_race_finder5testss_28test_get_category_from_score
FNDA:1,_RNvNtCsdY1tzCMfrk2_17zwift_race_finder5testss_29test_multi_lap_race_detection
FNDA:1,_RNvNtCsdY1tzCMfrk2_17zwift_race_finder5testss_29test_parse_distance_from_name
FNDA:1,_RNvNtCsdY1tzCMfrk2_17zwift_race_finder5testss_30test_database_route_validation
FNDA:0,_RNvNtCsdY1tzCMfrk2_17zwift_race_finder5testss_30test_real_zwift_api_connection
FNDA:1,_RNvNtCsdY1tzCMfrk2_17zwift_race_finder5testss_31test_category_logic_consistency
FNDA:1,_RNvNtCsdY1tzCMfrk2_17zwift_race_finder5testss_31test_filters_out_running_events
FNDA:1,_RNvNtCsdY1tzCMfrk2_17zwift_race_finder5testss_31test_load_and_save_cached_stats
FNDA:1,_RNvNtCsdY1tzCMfrk2_17zwift_race_finder5testss_31test_specific_route_multipliers
FNDA:1,_RNvNtCsdY1tzCMfrk2_17zwift_race_finder5testss_32test_estimate_distance_from_name
FNDA:1,_RNvNtCsdY1tzCMfrk2_17zwift_race_finder5testss_32test_generate_filter_description
FNDA:1,_RNvNtCsdY1tzCMfrk2_17zwift_race_finder5testss_33test_racing_score_event_filtering
FNDA:1,_RNvNtCsdY1tzCMfrk2_17zwift_race_finder5testss_34test_duration_estimation_for_cat_d
FNDA:1,_RNvNtCsdY1tzCMfrk2_17zwift_race_finder5testss_34test_regression_common_zwift_races
FNDA:1,_RNvNtCsdY1tzCMfrk2_17zwift_race_finder5testss_35test_estimate_duration_for_category
FNDA:1,_RNvNtCsdY1tzCMfrk2_17zwift_race_finder5testss_36test_get_route_difficulty_multiplier
FNDA:1,_RNvNtCsdY1tzCMfrk2_17zwift_race_finder5testss_36test_parse_distance_from_description
FNDA:1,_RNvNtCsdY1tzCMfrk2_17zwift_race_finder5testss_42test_racing_score_event_with_zero_distance
FNDA:1,_RNvNtCsdY1tzCMfrk2_17zwift_race_finder5testss_43test_generate_no_results_suggestions_for_tt
FNDA:1,_RNvNtCsdY1tzCMfrk2_17zwift_race_finder5testss_44test_route_id_regression_with_actual_results
FNDA:1,_RNvNtCsdY1tzCMfrk2_17zwift_race_finder5testss_45test_generate_no_results_suggestions_for_race
FNDA:1,_RNvNtCsdY1tzCMfrk2_17zwift_race_finder5testss_46test_generate_no_results_suggestions_for_other
FNDA:1,_RNvNtCsdY1tzCMfrk2_17zwift_race_finder5testss_51test_get_route_difficulty_multiplier_from_elevation
FNDA:0,_RNCNCNCNvCs6l7Ma75WKx0_17zwift_race_finder13filter_eventss1_000B7_
FNDA:0,_RNCNCNCNvCs6l7Ma75WKx0_17zwift_race_finder13filter_eventss2_000B7_
FNDA:0,_RNCNCNCNvCs6l7Ma75WKx0_17zwift_race_finder13filter_eventss4_0s3_00B7_
FNDA:0,_RNCNCNCNvCs6l7Ma75WKx0_17zwift_race_finder13filter_eventss4_0s_00B7_
FNDA:0,_RNCNCNCNvCs6l7Ma75WKx0_17zwift_race_finder13filter_eventss4_0s_0s_0B7_
FNDA:0,_RNCNCNvCs6l7Ma75WKx0_17zwift_race_finder11print_events_00B5_
FNDA:0,_RNCNCNvCs6l7Ma75WKx0_17zwift_race_finder13filter_eventss1_00B5_
FNDA:0,_RNCNCNvCs6l7Ma75WKx0_17zwift_race_finder13filter_eventss2_00B5_
FNDA:0,_RNCNCNvCs6l7Ma75WKx0_17zwift_race_finder13filter_eventss4_00B5_
FNDA:0,_RNCNCNvCs6l7Ma75WKx0_17zwift_race_finder13filter_eventss4_0s0_0B5_
FNDA:0,_RNCNCNvCs6l7Ma75WKx0_17zwift_race_finder13filter_eventss4_0s1_0B5_
FNDA:0,_RNCNCNvCs6l7Ma75WKx0_17zwift_race_finder13filter_eventss4_0s2_0B5_
FNDA:0,_RNCNCNvCs6l7Ma75WKx0_17zwift_race_finder13filter_eventss4_0s3_0B5_
FNDA:0,_RNCNCNvCs6l7Ma75WKx0_17zwift_race_finder13filter_eventss4_0s_0B5_
FNDA:0,_RNCNCNvCs6l7Ma75WKx0_17zwift_race_finder13filter_eventss6_00B5_
FNDA:0,_RNCNCNvCs6l7Ma75WKx0_17zwift_race_finder14get_user_stats00B5_
FNDA:0,_RNCNCNvCs6l7Ma75WKx0_17zwift_race_finder23discover_unknown_routes00B5_
FNDA:0,_RNCNCNvCs6l7Ma75WKx0_17zwift_race_finder26analyze_event_descriptions00B5_
FNDA:0,_RNCNCNvCs6l7Ma75WKx0_17zwift_race_finder4main00B5_
FNDA:0,_RNCNCNvCs6l7Ma75WKx0_17zwift_race_finder4main0s0_0B5_
FNDA:0,_RNCNCNvCs6l7Ma75WKx0_17zwift_race_finder4main0s1_0B5_
FNDA:0,_RNCNCNvCs6l7Ma75WKx0_17zwift_race_finder4main0s2_0B5_
FNDA:0,_RNCNCNvCs6l7Ma75WKx0_17zwift_race_finder4main0s3_0B5_
FNDA:0,_RNCNCNvCs6l7Ma75WKx0_17zwift_race_finder4main0s4_0B5_
FNDA:0,_RNCNCNvCs6l7Ma75WKx0_17zwift_race_finder4main0s_0B5_
FNDA:0,_RNCNvCs6l7Ma75WKx0_17zwift_race_finder11print_event0B3_
FNDA:0,_RNCNvCs6l7Ma75WKx0_17zwift_race_finder11print_events0_0B3_
FNDA:0,_RNCNvCs6l7Ma75WKx0_17zwift_race_finder11print_events1_0B3_
FNDA:0,_RNCNvCs6l7Ma75WKx0_17zwift_race_finder11print_events2_0B3_
FNDA:0,_RNCNvCs6l7Ma75WKx0_17zwift_race_finder11print_events3_0B3_
FNDA:0,_RNCNvCs6l7Ma75WKx0_17zwift_race_finder11print_events4_0B3_
FNDA:0,_RNCNvCs6l7Ma75WKx0_17zwift_race_finder11print_events5_0B3_
FNDA:0,_RNCNvCs6l7Ma75WKx0_17zwift_race_finder11print_events6_0B3_
FNDA:0,_RNCNvCs6l7Ma75WKx0_17zwift_race_finder11print_events7_0B3_
FNDA:0,_RNCNvCs6l7Ma75WKx0_17zwift_race_finder11print_events_0B3_
FNDA:0,_RNCNvCs6l7Ma75WKx0_17zwift_race_finder12fetch_events0B3_
FNDA:0,_RNCNvCs6l7Ma75WKx0_17zwift_race_finder13filter_events0B3_
FNDA:0,_RNCNvCs6l7Ma75WKx0_17zwift_race_finder13filter_eventss0_0B3_
FNDA:0,_RNCNvCs6l7Ma75WKx0_17zwift_race_finder13filter_eventss1_0B3_
FNDA:0,_RNCNvCs6l7Ma75WKx0_17zwift_race_finder13filter_eventss2_0B3_
FNDA:0,_RNCNvCs6l7Ma75WKx0_17zwift_race_finder13filter_eventss3_0B3_
FNDA:0,_RNCNvCs6l7Ma75WKx0_17zwift_race_finder13filter_eventss4_0B3_
FNDA:0,_RNCNvCs6l7Ma75WKx0_17zwift_race_finder13filter_eventss5_0B3_
FNDA:0,_RNCNvCs6l7Ma75WKx0_17zwift_race_finder13filter_eventss6_0B3_
FNDA:0,_RNCNvCs6l7Ma75WKx0_17zwift_race_finder13filter_eventss_0B3_
FNDA:0,_RNCNvCs6l7Ma75WKx0_17zwift_race_finder14get_cache_file0B3_
FNDA:0,_RNCNvCs6l7Ma75WKx0_17zwift_race_finder14get_user_stats0B3_
FNDA:0,_RNCNvCs6l7Ma75WKx0_17zwift_race_finder17prepare_event_row0B3_
FNDA:0,_RNCNvCs6l7Ma75WKx0_17zwift_race_finder17prepare_event_rows0_0B3_
FNDA:0,_RNCNvCs6l7Ma75WKx0_17zwift_race_finder17prepare_event_rows1_0B3_
FNDA:0,_RNCNvCs6l7Ma75WKx0_17zwift_race_finder17prepare_event_rows2_0B3_
FNDA:0,_RNCNvCs6l7Ma75WKx0_17zwift_race_finder17prepare_event_rows_0B3_
FNDA:0,_RNCNvCs6l7Ma75WKx0_17zwift_race_finder18find_user_subgroup0B3_
FNDA:0,_RNCNvCs6l7Ma75WKx0_17zwift_race_finder18print_events_table0B3_
FNDA:0,_RNCNvCs6l7Ma75WKx0_17zwift_race_finder18print_events_tables0_0B3_
FNDA:0,_RNCNvCs6l7Ma75WKx0_17zwift_race_finder18print_events_tables1_0B3_
FNDA:0,_RNCNvCs6l7Ma75WKx0_17zwift_race_finder18print_events_tables2_0B3_
FNDA:0,_RNCNvCs6l7Ma75WKx0_17zwift_race_finder18print_events_tables_0B3_
FNDA:0,_RNCNvCs6l7Ma75WKx0_17zwift_race_finder18record_race_result0B3_
FNDA:0,_RNCNvCs6l7Ma75WKx0_17zwift_race_finder18record_race_results_0B3_
FNDA:0,_RNCNvCs6l7Ma75WKx0_17zwift_race_finder20count_events_by_type0B3_
FNDA:0,_RNCNvCs6l7Ma75WKx0_17zwift_race_finder21is_racing_score_event0B3_
FNDA:0,_RNCNvCs6l7Ma75WKx0_17zwift_race_finder22fetch_zwiftpower_stats0B3_
FNDA:0,_RNCNvCs6l7Ma75WKx0_17zwift_race_finder23discover_unknown_routes0B3_
FNDA:0,_RNCNvCs6l7Ma75WKx0_17zwift_race_finder23fetch_zwiftpower_public0B3_
FNDA:0,_RNCNvCs6l7Ma75WKx0_17zwift_race_finder26analyze_event_descriptions0B3_
FNDA:0,_RNCNvCs6l7Ma75WKx0_17zwift_race_finder4main0B3_
FNDA:0,_RNCNvXs0_Cs6l7Ma75WKx0_17zwift_race_finderNtB7_4ArgsNtNtCs89j6SmNId1d_12clap_builder6derive14FromArgMatches20from_arg_matches_mut0B7_
FNDA:0,_RNCNvXs0_Cs6l7Ma75WKx0_17zwift_race_finderNtB7_4ArgsNtNtCs89j6SmNId1d_12clap_builder6derive14FromArgMatches20from_arg_matches_muts0_0B7_
FNDA:0,_RNCNvXs0_Cs6l7Ma75WKx0_17zwift_race_finderNtB7_4ArgsNtNtCs89j6SmNId1d_12clap_builder6derive14FromArgMatches20from_arg_matches_muts1_0B7_
FNDA:0,_RNCNvXs0_Cs6l7Ma75WKx0_17zwift_race_finderNtB7_4ArgsNtNtCs89j6SmNId1d_12clap_builder6derive14FromArgMatches20from_arg_matches_muts2_0B7_
FNDA:0,_RNCNvXs0_Cs6l7Ma75WKx0_17zwift_race_finderNtB7_4ArgsNtNtCs89j6SmNId1d_12clap_builder6derive14FromArgMatches20from_arg_matches_muts3_0B7_
FNDA:0,_RNCNvXs0_Cs6l7Ma75WKx0_17zwift_race_finderNtB7_4ArgsNtNtCs89j6SmNId1d_12clap_builder6derive14FromArgMatches20from_arg_matches_muts4_0B7_
FNDA:0,_RNCNvXs0_Cs6l7Ma75WKx0_17zwift_race_finderNtB7_4ArgsNtNtCs89j6SmNId1d_12clap_builder6derive14FromArgMatches20from_arg_matches_muts5_0B7_
FNDA:0,_RNCNvXs0_Cs6l7Ma75WKx0_17zwift_race_finderNtB7_4ArgsNtNtCs89j6SmNId1d_12clap_builder6derive14FromArgMatches20from_arg_matches_muts6_0B7_
FNDA:0,_RNCNvXs0_Cs6l7Ma75WKx0_17zwift_race_finderNtB7_4ArgsNtNtCs89j6SmNId1d_12clap_builder6derive14FromArgMatches20from_arg_matches_muts7_0B7_
FNDA:0,_RNCNvXs0_Cs6l7Ma75WKx0_17zwift_race_finderNtB7_4ArgsNtNtCs89j6SmNId1d_12clap_builder6derive14FromArgMatches20from_arg_matches_muts8_0B7_
FNDA:0,_RNCNvXs0_Cs6l7Ma75WKx0_17zwift_race_finderNtB7_4ArgsNtNtCs89j6SmNId1d_12clap_builder6derive14FromArgMatches20from_arg_matches_muts9_0B7_
FNDA:0,_RNCNvXs0_Cs6l7Ma75WKx0_17zwift_race_finderNtB7_4ArgsNtNtCs89j6SmNId1d_12clap_builder6derive14FromArgMatches20from_arg_matches_muts_0B7_
FNDA:0,_RNCNvXs0_Cs6l7Ma75WKx0_17zwift_race_finderNtB7_4ArgsNtNtCs89j6SmNId1d_12clap_builder6derive14FromArgMatches20from_arg_matches_mutsa_0B7_
FNDA:0,_RNCNvXs0_Cs6l7Ma75WKx0_17zwift_race_finderNtB7_4ArgsNtNtCs89j6SmNId1d_12clap_builder6derive14FromArgMatches27update_from_arg_matches_mut0B7_
FNDA:0,_RNCNvXs0_Cs6l7Ma75WKx0_17zwift_race_finderNtB7_4ArgsNtNtCs89j6SmNId1d_12clap_builder6derive14FromArgMatches27update_from_arg_matches_muts0_0B7_
FNDA:0,_RNCNvXs0_Cs6l7Ma75WKx0_17zwift_race_finderNtB7_4ArgsNtNtCs89j6SmNId1d_12clap_builder6derive14FromArgMatches27update_from_arg_matches_muts1_0B7_
FNDA:0,_RNCNvXs0_Cs6l7Ma75WKx0_17zwift_race_finderNtB7_4ArgsNtNtCs89j6SmNId1d_12clap_builder6derive14FromArgMatches27update_from_arg_matches_muts2_0B7_
FNDA:0,_RNCNvXs0_Cs6l7Ma75WKx0_17zwift_race_finderNtB7_4ArgsNtNtCs89j6SmNId1d_12clap_builder6derive14FromArgMatches27update_from_arg_matches_muts3_0B7_
FNDA:0,_RNCNvXs0_Cs6l7Ma75WKx0_17zwift_race_finderNtB7_4ArgsNtNtCs89j6SmNId1d_12clap_builder6derive14FromArgMatches27update_from_arg_matches_muts4_0B7_
FNDA:0,_RNCNvXs0_Cs6l7Ma75WKx0_17zwift_race_finderNtB7_4ArgsNtNtCs89j6SmNId1d_12clap_builder6derive14FromArgMatches27update_from_arg_matches_muts5_0B7_
FNDA:0,_RNCNvXs0_Cs6l7Ma75WKx0_17zwift_race_finderNtB7_4ArgsNtNtCs89j6SmNId1d_12clap_builder6derive14FromArgMatches27update_from_arg_matches_muts6_0B7_
FNDA:0,_RNCNvXs0_Cs6l7Ma75WKx0_17zwift_race_finderNtB7_4ArgsNtNtCs89j6SmNId1d_12clap_builder6derive14FromArgMatches27update_from_arg_matches_muts7_0B7_
FNDA:0,_RNCNvXs0_Cs6l7Ma75WKx0_17zwift_race_finderNtB7_4ArgsNtNtCs89j6SmNId1d_12clap_builder6derive14FromArgMatches27update_from_arg_matches_muts8_0B7_
FNDA:0,_RNCNvXs0_Cs6l7Ma75WKx0_17zwift_race_finderNtB7_4ArgsNtNtCs89j6SmNId1d_12clap_builder6derive14FromArgMatches27update_from_arg_matches_muts9_0B7_
FNDA:0,_RNCNvXs0_Cs6l7Ma75WKx0_17zwift_race_finderNtB7_4ArgsNtNtCs89j6SmNId1d_12clap_builder6derive14FromArgMatches27update_from_arg_matches_muts_0B7_
FNDA:0,_RNCNvXs0_Cs6l7Ma75WKx0_17zwift_race_finderNtB7_4ArgsNtNtCs89j6SmNId1d_12clap_builder6derive14FromArgMatches27update_from_arg_matches_mutsa_0B7_
FNDA:0,_RNvCs6l7Ma75WKx0_17zwift_race_finder11print_event
FNDA:0,_RNvCs6l7Ma75WKx0_17zwift_race_finder12fetch_events
FNDA:0,_RNvCs6l7Ma75WKx0_17zwift_race_finder13default_sport
FNDA:0,_RNvCs6l7Ma75WKx0_17zwift_race_finder13filter_events
FNDA:0,_RNvCs6l7Ma75WKx0_17zwift_race_finder14get_cache_file
FNDA:0,_RNvCs6l7Ma75WKx0_17zwift_race_finder14get_route_data
FNDA:0,_RNvCs6l7Ma75WKx0_17zwift_race_finder14get_user_stats
FNDA:0,_RNvCs6l7Ma75WKx0_17zwift_race_finder15format_duration
FNDA:0,_RNvCs6l7Ma75WKx0_17zwift_race_finder17format_event_type
FNDA:0,_RNvCs6l7Ma75WKx0_17zwift_race_finder17load_cached_stats
FNDA:0,_RNvCs6l7Ma75WKx0_17zwift_race_finder17log_unknown_route
FNDA:0,_RNvCs6l7Ma75WKx0_17zwift_race_finder17prepare_event_row
FNDA:0,_RNvCs6l7Ma75WKx0_17zwift_race_finder17save_cached_stats
FNDA:0,_RNvCs6l7Ma75WKx0_17zwift_race_finder18find_user_subgroup
FNDA:0,_RNvCs6l7Ma75WKx0_17zwift_race_finder18get_category_speed
FNDA:0,_RNvCs6l7Ma75WKx0_17zwift_race_finder18print_events_table
FNDA:0,_RNvCs6l7Ma75WKx0_17zwift_race_finder18record_race_result
FNDA:0,_RNvCs6l7Ma75WKx0_17zwift_race_finder19mark_route_complete
FNDA:0,_RNvCs6l7Ma75WKx0_17zwift_race_finder19show_route_progress
FNDA:0,_RNvCs6l7Ma75WKx0_17zwift_race_finder19show_unknown_routes
FNDA:0,_RNvCs6l7Ma75WKx0_17zwift_race_finder20count_events_by_type
FNDA:0,_RNvCs6l7Ma75WKx0_17zwift_race_finder20display_filter_stats
FNDA:0,_RNvCs6l7Ma75WKx0_17zwift_race_finder21is_racing_score_event
FNDA:0,_RNvCs6l7Ma75WKx0_17zwift_race_finder22fetch_zwiftpower_stats
FNDA:0,_RNvCs6l7Ma75WKx0_17zwift_race_finder22get_route_data_from_db
FNDA:0,_RNvCs6l7Ma75WKx0_17zwift_race_finder22parse_description_data
FNDA:0,_RNvCs6l7Ma75WKx0_17zwift_race_finder23discover_unknown_routes
FNDA:0,_RNvCs6l7Ma75WKx0_17zwift_race_finder23fetch_zwiftpower_public
FNDA:0,_RNvCs6l7Ma75WKx0_17zwift_race_finder23get_category_from_score
FNDA:0,_RNvCs6l7Ma75WKx0_17zwift_race_finder24parse_distance_from_name
FNDA:0,_RNvCs6l7Ma75WKx0_17zwift_race_finder26analyze_event_descriptions
FNDA:0,_RNvCs6l7Ma75WKx0_17zwift_race_finder27estimate_distance_from_name
FNDA:0,_RNvCs6l7Ma75WKx0_17zwift_race_finder27generate_filter_description
FNDA:0,_RNvCs6l7Ma75WKx0_17zwift_race_finder30estimate_duration_for_category
FNDA:0,_RNvCs6l7Ma75WKx0_17zwift_race_finder31estimate_duration_from_route_id
FNDA:0,_RNvCs6l7Ma75WKx0_17zwift_race_finder31estimate_duration_with_distance
FNDA:0,_RNvCs6l7Ma75WKx0_17zwift_race_finder31generate_no_results_suggestions
FNDA:0,_RNvCs6l7Ma75WKx0_17zwift_race_finder31get_route_difficulty_multiplier
FNDA:0,_RNvCs6l7Ma75WKx0_17zwift_race_finder31parse_distance_from_description
FNDA:0,_RNvCs6l7Ma75WKx0_17zwift_race_finder46get_route_difficulty_multiplier_from_elevation
FNDA:0,_RNvCs6l7Ma75WKx0_17zwift_race_finder4main
FNF:169
FNH:88
DA:36,0
DA:40,0
DA:44,0
DA:48,0
DA:56,0
DA:60,0
DA:64,0
DA:72,0
DA:76,0
DA:80,0
DA:88,0
DA:92,0
DA:96,0
DA:124,1
DA:125,1
DA:126,1
DA:128,6
DA:129,6
DA:130,6
DA:131,6
DA:141,5
DA:142,5
DA:143,5
DA:144,5
DA:145,5
DA:146,5
DA:148,5
DA:150,5
DA:151,5
DA:152,5
DA:153,5
DA:154,5
DA:155,5
DA:156,5
DA:157,5
DA:158,5
DA:160,14
DA:161,13
DA:162,13
DA:163,4
DA:164,4
DA:165,4
DA:166,4
DA:167,1
DA:169,3
DA:171,4
DA:172,0
DA:173,9
DA:177,5
DA:178,5
DA:179,1
DA:180,1
DA:181,1
DA:182,4
DA:183,0
DA:185,5
DA:186,5
DA:188,16
DA:189,16
DA:192,15
DA:193,15
DA:194,8
DA:195,8
DA:197,8
DA:198,2
DA:200,6
DA:202,0
DA:203,7
DA:206,7
DA:208,1
DA:210,16
DA:245,176
DA:246,176
DA:247,176
DA:248,25
DA:249,16
DA:250,8
DA:252,176
DA:255,156
DA:256,156
DA:257,156
DA:258,153
DA:259,150
DA:260,146
DA:261,2
DA:263,156
DA:279,259
DA:280,259
DA:281,259
DA:283,0
DA:285,259
DA:288,259
DA:290,259
DA:292,236
DA:293,236
DA:294,236
DA:295,236
DA:296,236
DA:297,236
DA:298,0
DA:299,0
DA:300,0
DA:302,236
DA:304,23
DA:305,23
DA:306,23
DA:307,23
DA:309,0
DA:310,0
DA:311,0
DA:312,0
DA:313,0
DA:314,0
DA:315,0
DA:316,0
DA:319,0
DA:320,0
DA:321,0
DA:322,0
DA:323,0
DA:324,0
DA:325,0
DA:326,0
DA:328,0
DA:329,0
DA:330,0
DA:331,0
DA:332,0
DA:333,0
DA:334,0
DA:335,0
DA:337,0
DA:338,0
DA:339,0
DA:340,0
DA:341,0
DA:342,0
DA:343,0
DA:344,0
DA:347,0
DA:348,0
DA:349,0
DA:350,0
DA:351,0
DA:352,0
DA:353,0
DA:354,0
DA:357,0
DA:358,0
DA:359,0
DA:360,0
DA:361,0
DA:362,0
DA:363,0
DA:364,0
DA:367,0
DA:368,0
DA:369,0
DA:370,0
DA:371,0
DA:372,0
DA:373,0
DA:374,0
DA:376,0
DA:377,0
DA:378,0
DA:379,0
DA:380,0
DA:381,0
DA:382,0
DA:383,0
DA:385,0
DA:386,0
DA:387,0
DA:388,0
DA:389,0
DA:390,0
DA:391,0
DA:392,0
DA:394,0
DA:395,0
DA:396,0
DA:397,0
DA:398,0
DA:399,0
DA:400,0
DA:401,0
DA:404,23
DA:406,259
DA:411,24
DA:412,24
DA:413,24
DA:414,16
DA:416,8
DA:418,24
DA:421,15
DA:422,15
DA:423,1
DA:424,14
DA:425,14
DA:426,14
DA:427,14
DA:428,14
DA:429,35
DA:430,35
DA:431,23
DA:432,35
DA:433,15
DA:436,1
DA:437,1
DA:438,5
DA:439,4
DA:440,3
DA:441,3
DA:444,1
DA:445,2
DA:446,1
DA:447,1
DA:450,6
DA:451,6
DA:452,6
DA:453,4
DA:454,3
DA:455,2
DA:456,1
DA:458,6
DA:459,6
DA:462,3
DA:463,3
DA:464,3
DA:465,3
DA:466,1
DA:467,1
DA:468,1
DA:469,1
DA:470,2
DA:471,1
DA:472,1
DA:473,1
DA:474,1
DA:475,1
DA:476,1
DA:477,1
DA:478,1
DA:480,3
DA:481,3
DA:484,149
DA:485,149
DA:486,149
DA:487,149
DA:488,28
DA:489,121
DA:490,121
DA:491,121
DA:492,121
DA:493,121
DA:494,2
DA:495,2
DA:496,119
DA:497,119
DA:498,119
DA:499,149
DA:502,11
DA:504,11
DA:505,2
DA:506,9
DA:507,9
DA:508,9
DA:509,9
DA:510,9
DA:511,9
DA:512,2
DA:513,7
DA:514,2
DA:515,5
DA:516,1
DA:517,4
DA:518,1
DA:519,3
DA:520,1
DA:522,2
DA:524,11
DA:527,123
DA:528,123
DA:529,123
DA:530,123
DA:531,123
DA:532,35
DA:533,15
DA:534,13
DA:535,4
DA:537,123
DA:540,46
DA:541,46
DA:542,46
DA:543,46
DA:544,7
DA:545,39
DA:546,5
DA:547,34
DA:548,14
DA:550,20
DA:552,46
DA:555,110
DA:556,110
DA:558,108
DA:559,108
DA:560,110
DA:563,127
DA:564,127
DA:567,111
DA:568,111
DA:576,111
DA:577,111
DA:578,111
DA:579,111
DA:580,111
DA:581,111
DA:582,111
DA:583,111
DA:584,111
DA:587,111
DA:588,111
DA:589,0
DA:590,0
DA:591,0
DA:595,111
DA:597,8
DA:599,103
DA:602,111
DA:603,111
DA:604,111
DA:605,111
DA:606,0
DA:607,0
DA:610,0
DA:611,0
DA:612,0
DA:613,0
DA:614,0
DA:615,0
DA:616,0
DA:617,0
DA:618,0
DA:621,0
DA:622,0
DA:623,0
DA:624,0
DA:625,0
DA:628,0
DA:629,0
DA:630,0
DA:631,0
DA:632,127
DA:635,30
DA:636,30
DA:637,30
DA:638,30
DA:639,30
DA:640,30
DA:641,30
DA:642,30
DA:643,30
DA:644,30
DA:645,30
DA:647,5
DA:648,5
DA:649,5
DA:650,5
DA:651,5
DA:652,5
DA:653,5
DA:656,4
DA:657,4
DA:660,4
DA:661,4
DA:662,1
DA:663,0
DA:664,0
DA:665,0
DA:666,0
DA:667,0
DA:669,4
DA:670,4
DA:671,4
DA:672,4
DA:673,4
DA:674,4
DA:675,4
DA:676,3
DA:677,3
DA:678,1
DA:679,1
DA:682,4
DA:683,1
DA:684,1
DA:685,3
DA:688,4
DA:689,0
DA:690,0
DA:691,4
DA:694,4
DA:695,0
DA:696,4
DA:698,4
DA:699,4
DA:701,0
DA:703,0
DA:704,0
DA:705,0
DA:706,0
DA:707,0
DA:708,0
DA:709,0
DA:711,0
DA:714,0
DA:716,0
DA:717,0
DA:718,0
DA:720,0
DA:722,0
DA:723,0
DA:724,0
DA:727,0
DA:728,0
DA:730,0
DA:731,0
DA:733,0
DA:734,0
DA:735,0
DA:736,0
DA:737,0
DA:738,0
DA:739,0
DA:740,0
DA:741,0
DA:745,0
DA:749,0
DA:750,0
DA:752,0
DA:754,0
DA:755,0
DA:756,0
DA:758,0
DA:759,0
DA:760,0
DA:761,0
DA:763,0
DA:765,0
DA:767,3
DA:768,3
DA:770,3
DA:771,1
DA:772,2
DA:774,2
DA:775,2
DA:778,2
DA:779,2
DA:780,1
DA:782,1
DA:784,3
DA:786,1
DA:787,1
DA:788,1
DA:789,1
DA:790,1
DA:791,1
DA:793,1
DA:794,1
DA:795,1
DA:796,1
DA:798,0
DA:800,0
DA:801,0
DA:802,0
DA:805,0
DA:807,0
DA:808,0
DA:809,0
DA:810,0
DA:811,0
DA:812,0
DA:813,0
DA:814,0
DA:815,0
DA:816,0
DA:817,0
DA:819,0
DA:820,0
DA:821,0
DA:822,0
DA:823,0
DA:825,0
DA:826,0
DA:827,0
DA:829,0
DA:830,0
DA:831,0
DA:832,0
DA:833,0
DA:835,0
DA:836,0
DA:837,0
DA:839,7
DA:840,7
DA:841,7
DA:842,7
DA:843,7
DA:844,7
DA:845,7
DA:846,0
DA:847,7
DA:850,7
DA:851,21
DA:852,7
DA:853,7
DA:854,0
DA:855,7
DA:858,7
DA:859,20
DA:860,7
DA:861,7
DA:862,0
DA:863,7
DA:866,7
DA:867,20
DA:868,20
DA:869,15
DA:870,8
DA:871,8
DA:872,8
DA:873,4
DA:874,2
DA:875,1
DA:877,4
DA:878,4
DA:879,2
DA:880,1
DA:881,1
DA:884,0
DA:885,0
DA:886,0
DA:887,0
DA:888,0
DA:890,20
DA:891,7
DA:892,7
DA:893,0
DA:894,7
DA:897,7
DA:898,0
DA:899,0
DA:900,0
DA:901,0
DA:902,0
DA:903,0
DA:904,0
DA:905,0
DA:906,7
DA:909,7
DA:910,0
DA:911,0
DA:912,0
DA:913,0
DA:914,0
DA:915,0
DA:916,0
DA:917,0
DA:918,7
DA:921,7
DA:922,0
DA:923,0
DA:924,0
DA:925,0
DA:926,0
DA:928,0
DA:931,0
DA:933,0
DA:934,0
DA:935,0
DA:936,0
DA:937,0
DA:938,0
DA:939,7
DA:942,7
DA:943,11
DA:944,11
DA:945,11
DA:946,11
DA:947,11
DA:948,11
DA:950,11
DA:952,0
DA:953,0
DA:954,11
DA:957,11
DA:959,1
DA:962,1
DA:963,0
DA:965,0
DA:966,0
DA:967,0
DA:968,0
DA:969,0
DA:970,0
DA:971,0
DA:972,0
DA:973,1
DA:976,1
DA:977,1
DA:978,1
DA:980,1
DA:981,0
DA:982,0
DA:983,0
DA:984,0
DA:987,0
DA:988,0
DA:989,0
DA:990,0
DA:992,1
DA:994,0
DA:997,0
DA:998,0
DA:999,0
DA:1000,0
DA:1001,0
DA:1003,0
DA:1004,0
DA:1005,1
DA:1007,1
DA:1008,1
DA:1009,0
DA:1010,0
DA:1011,1
DA:1012,0
DA:1013,0
DA:1015,10
DA:1018,11
DA:1019,9
DA:1020,9
DA:1021,9
DA:1022,9
DA:1023,9
DA:1024,9
DA:1025,2
DA:1026,2
DA:1027,2
DA:1028,2
DA:1029,2
DA:1030,2
DA:1031,2
DA:1032,2
DA:1033,2
DA:1034,2
DA:1035,0
DA:1036,0
DA:1039,0
DA:1040,0
DA:1041,0
DA:1042,0
DA:1043,0
DA:1044,0
DA:1045,0
DA:1046,0
DA:1047,0
DA:1049,0
DA:1050,0
DA:1051,0
DA:1052,0
DA:1054,0
DA:1055,0
DA:1057,0
DA:1058,0
DA:1059,0
DA:1061,0
DA:1062,0
DA:1063,0
DA:1064,0
DA:1065,0
DA:1066,0
DA:1067,0
DA:1068,0
DA:1069,0
DA:1070,0
DA:1072,0
DA:1074,0
DA:1076,0
DA:1078,11
DA:1079,7
DA:1080,7
DA:1081,7
DA:1082,0
DA:1083,7
DA:1086,16
DA:1087,9
DA:1088,1
DA:1089,1
DA:1090,1
DA:1091,1
DA:1092,8
DA:1095,9
DA:1096,7
DA:1098,9
DA:1099,1
DA:1100,8
DA:1103,7
DA:1104,7
DA:1106,13
DA:1107,13
DA:1108,13
DA:1109,13
DA:1110,13
DA:1113,2
DA:1114,2
DA:1115,2
DA:1116,2
DA:1117,2
DA:1118,1
DA:1119,1
DA:1120,1
DA:1121,1
DA:1122,1
DA:1123,1
DA:1124,1
DA:1125,1
DA:1126,1
DA:1128,1
DA:1129,1
DA:1130,1
DA:1132,1
DA:1133,1
DA:1134,1
DA:1136,1
DA:1137,1
DA:1138,1
DA:1140,1
DA:1141,0
DA:1142,1
DA:1144,1
DA:1145,1
DA:1146,1
DA:1149,1
DA:1150,1
DA:1151,1
DA:1152,1
DA:1153,1
DA:1154,1
DA:1155,1
DA:1156,1
DA:1158,1
DA:1159,1
DA:1160,1
DA:1161,1
DA:1162,1
DA:1163,0
DA:1166,1
DA:1167,0
DA:1168,0
DA:1169,0
DA:1170,1
DA:1171,2
DA:1174,2
DA:1175,2
DA:1176,2
DA:1178,2
DA:1179,2
DA:1181,0
DA:1182,0
DA:1183,0
DA:1184,0
DA:1185,0
DA:1186,0
DA:1187,0
DA:1188,0
DA:1189,0
DA:1190,0
DA:1191,2
DA:1192,0
DA:1195,2
DA:1196,2
DA:1197,2
DA:1198,2
DA:1199,2
DA:1200,2
DA:1201,2
DA:1202,0
DA:1203,0
DA:1204,2
DA:1229,0
DA:1230,0
DA:1231,0
DA:1232,0
DA:1233,0
DA:1234,0
DA:1235,0
DA:1236,0
DA:1237,0
DA:1238,0
DA:1239,0
DA:1240,0
DA:1242,0
DA:1243,0
DA:1244,0
DA:1245,0
DA:1246,0
DA:1249,0
DA:1250,0
DA:1251,0
DA:1252,0
DA:1253,0
DA:1254,0
DA:1255,0
DA:1256,0
DA:1257,0
DA:1258,0
DA:1259,0
DA:1260,0
DA:1261,0
DA:1262,0
DA:1263,0
DA:1264,0
DA:1265,0
DA:1266,0
DA:1267,0
DA:1268,0
DA:1269,0
DA:1270,0
DA:1271,0
DA:1272,0
DA:1273,0
DA:1274,0
DA:1275,0
DA:1276,0
DA:1277,0
DA:1278,0
DA:1279,0
DA:1280,0
DA:1281,0
DA:1282,0
DA:1283,0
DA:1284,0
DA:1285,0
DA:1286,0
DA:1287,0
DA:1288,0
DA:1289,0
DA:1291,0
DA:1292,0
DA:1293,0
DA:1294,0
DA:1295,0
DA:1296,0
DA:1297,0
DA:1298,0
DA:1299,0
DA:1300,0
DA:1301,0
DA:1302,0
DA:1303,0
DA:1304,0
DA:1305,0
DA:1308,0
DA:1309,0
DA:1312,1
DA:1313,1
DA:1314,1
DA:1317,1
DA:1318,1
DA:1320,0
DA:1321,0
DA:1322,0
DA:1323,0
DA:1324,0
DA:1325,0
DA:1326,0
DA:1329,0
DA:1330,0
DA:1331,0
DA:1332,0
DA:1333,0
DA:1334,0
DA:1335,0
DA:1336,0
DA:1337,0
DA:1338,0
DA:1339,0
DA:1340,0
DA:1343,0
DA:1344,0
DA:1345,0
DA:1346,0
DA:1347,0
DA:1348,0
DA:1349,0
DA:1350,0
DA:1351,0
DA:1352,0
DA:1353,0
DA:1354,0
DA:1355,0
DA:1356,0
DA:1357,0
DA:1359,0
DA:1360,0
DA:1361,0
DA:1362,0
DA:1363,0
DA:1366,0
DA:1367,0
DA:1368,0
DA:1369,0
DA:1372,1
DA:1373,1
DA:1374,1
DA:1375,1
DA:1376,1
DA:1378,0
DA:1383,0
DA:1384,0
DA:1385,0
DA:1386,0
DA:1387,0
DA:1389,0
DA:1393,1
DA:1394,1
DA:1395,1
DA:1396,1
DA:1397,1
DA:1398,1
DA:1399,1
DA:1400,1
DA:1402,0
DA:1403,0
DA:1404,0
DA:1405,0
DA:1406,0
DA:1407,0
DA:1408,0
DA:1409,0
DA:1410,0
DA:1411,0
DA:1412,0
DA:1413,0
DA:1414,0
DA:1415,0
DA:1416,0
DA:1418,0
DA:1419,0
DA:1420,0
DA:1423,0
DA:1425,0
DA:1426,0
DA:1427,0
DA:1429,0
DA:1432,0
DA:1435,0
DA:1436,0
DA:1437,0
DA:1438,0
DA:1439,0
DA:1440,0
DA:1441,0
DA:1442,0
DA:1443,0
DA:1444,0
DA:1445,0
DA:1446,0
DA:1447,0
DA:1448,0
DA:1449,0
DA:1450,0
DA:1451,0
DA:1454,0
DA:1455,0
DA:1456,0
DA:1457,0
DA:1458,0
DA:1459,0
DA:1460,0
DA:1461,0
DA:1462,0
DA:1463,0
DA:1464,0
DA:1466,0
DA:1467,0
DA:1468,0
DA:1469,0
DA:1470,0
DA:1471,0
DA:1472,0
DA:1474,0
DA:1476,0
DA:1479,0
DA:1480,0
DA:1481,0
DA:1482,0
DA:1483,0
DA:1484,0
DA:1485,0
DA:1486,0
DA:1487,0
DA:1488,0
DA:1489,0
DA:1490,0
DA:1491,0
DA:1494,0
DA:1495,0
DA:1496,0
DA:1497,0
DA:1499,0
DA:1500,0
DA:1501,0
DA:1502,0
DA:1503,0
DA:1504,0
DA:1509,0
DA:1510,0
DA:1511,0
DA:1512,0
DA:1513,0
DA:1514,0
DA:1515,0
DA:1516,0
DA:1517,0
DA:1520,0
DA:1521,0
DA:1522,0
DA:1525,0
DA:1526,0
DA:1527,0
DA:1528,0
DA:1529,0
DA:1530,0
DA:1531,0
DA:1533,0
DA:1534,0
DA:1535,0
DA:1536,0
DA:1537,0
DA:1540,0
DA:1541,0
DA:1542,0
DA:1543,0
DA:1545,0
DA:1546,0
DA:1547,0
DA:1548,0
DA:1549,0
DA:1550,0
DA:1551,0
DA:1553,0
DA:1554,0
DA:1555,0
DA:1556,0
DA:1557,0
DA:1558,0
DA:1561,0
DA:1562,0
DA:1563,0
DA:1564,0
DA:1565,0
DA:1567,0
DA:1568,0
DA:1569,0
DA:1570,0
DA:1571,0
DA:1572,0
DA:1573,0
DA:1574,0
DA:1575,0
DA:1576,0
DA:1577,0
DA:1578,0
DA:1579,0
DA:1581,0
DA:1582,0
DA:1583,0
DA:1584,0
DA:1585,0
DA:1586,0
DA:1587,0
DA:1588,0
DA:1589,0
DA:1590,0
DA:1591,0
DA:1592,0
DA:1593,0
DA:1595,0
DA:1597,0
DA:1598,0
DA:1599,0
DA:1600,0
DA:1601,0
DA:1602,0
DA:1603,0
DA:1604,0
DA:1605,0
DA:1606,0
DA:1607,0
DA:1608,0
DA:1609,0
DA:1611,0
DA:1612,0
DA:1613,0
DA:1614,0
DA:1615,0
DA:1616,0
DA:1619,0
DA:1621,0
DA:1622,0
DA:1623,0
DA:1624,0
DA:1625,0
DA:1626,0
DA:1627,0
DA:1628,0
DA:1629,0
DA:1630,0
DA:1631,0
DA:1632,0
DA:1633,0
DA:1634,0
DA:1635,0
DA:1636,0
DA:1637,0
DA:1639,0
DA:1640,0
DA:1641,0
DA:1642,0
DA:1643,0
DA:1644,0
DA:1645,0
DA:1648,0
DA:1649,0
DA:1650,0
DA:1653,0
DA:1654,0
DA:1655,0
DA:1656,0
DA:1657,0
DA:1659,0
DA:1660,0
DA:1661,0
DA:1663,0
DA:1666,0
DA:1667,0
DA:1668,0
DA:1671,0
DA:1672,0
DA:1673,0
DA:1674,0
DA:1675,0
DA:1676,0
DA:1677,0
DA:1678,0
DA:1679,0
DA:1680,0
DA:1681,0
DA:1682,0
DA:1683,0
DA:1684,0
DA:1685,0
DA:1686,0
DA:1687,0
DA:1688,0
DA:1689,0
DA:1690,0
DA:1692,0
DA:1693,0
DA:1694,0
DA:1696,0
DA:1698,0
DA:1701,0
DA:1702,0
DA:1703,0
DA:1704,0
DA:1705,0
DA:1706,0
DA:1707,0
DA:1708,0
DA:1709,0
DA:1710,0
DA:1711,0
DA:1712,0
DA:1713,0
DA:1714,0
DA:1716,0
DA:1717,0
DA:1718,0
DA:1721,0
DA:1722,0
DA:1723,0
DA:1724,0
DA:1725,0
DA:1726,0
DA:1727,0
DA:1728,0
DA:1729,0
DA:1730,0
DA:1731,0
DA:1732,0
DA:1733,0
DA:1736,0
DA:1737,0
DA:1738,0
DA:1739,0
DA:1740,0
DA:1741,0
DA:1742,0
DA:1743,0
DA:1744,0
DA:1745,0
DA:1746,0
DA:1747,0
DA:1748,0
DA:1749,0
DA:1750,0
DA:1751,0
DA:1753,0
DA:1754,0
DA:1755,0
DA:1756,0
DA:1757,0
DA:1758,0
DA:1760,0
DA:1761,0
DA:1762,0
DA:1764,0
DA:1765,0
DA:1766,0
DA:1767,0
DA:1768,0
DA:1769,0
DA:1770,0
DA:1772,0
DA:1773,0
DA:1774,0
DA:1775,0
DA:1776,0
DA:1777,0
DA:1778,0
DA:1779,0
DA:1781,0
DA:1782,0
DA:1784,0
DA:1785,0
DA:1787,0
DA:1788,0
DA:1789,0
DA:1791,0
DA:1792,0
DA:1793,0
DA:1794,0
DA:1795,0
DA:1796,0
DA:1797,0
DA:1798,0
DA:1799,0
DA:1800,0
DA:1801,0
DA:1807,0
DA:1808,0
DA:1809,0
DA:1810,0
DA:1813,0
DA:1814,0
DA:1815,0
DA:1816,0
DA:1817,0
DA:1818,0
DA:1819,0
DA:1820,0
DA:1821,0
DA:1822,0
DA:1824,0
DA:1826,0
DA:1827,0
DA:1828,0
DA:1829,0
DA:1830,0
DA:1831,0
DA:1832,0
DA:1833,0
DA:1834,0
DA:1835,0
DA:1836,0
DA:1837,0
DA:1838,0
DA:1839,0
DA:1840,0
DA:1843,0
DA:1846,0
DA:1847,0
DA:1849,0
DA:1850,0
DA:1852,0
DA:1856,0
DA:1857,0
DA:1858,0
DA:1859,0
DA:1860,0
DA:1861,0
DA:1862,0
DA:1863,0
DA:1865,0
DA:1866,0
DA:1867,0
DA:1869,0
DA:1870,0
DA:1871,0
DA:1872,0
DA:1876,0
DA:1879,0
DA:1880,0
DA:1881,0
DA:1882,0
DA:1883,0
DA:1884,0
DA:1885,0
DA:1886,0
DA:1887,0
DA:1888,0
DA:1889,0
DA:1890,0
DA:1891,0
DA:1892,0
DA:1893,0
DA:1894,0
DA:1895,0
DA:1896,0
DA:1897,0
DA:1900,0
DA:1901,0
DA:1902,0
DA:1903,0
DA:1904,0
DA:1905,0
DA:1906,0
DA:1907,0
DA:1908,0
DA:1909,0
DA:1911,0
DA:1912,0
DA:1914,0
DA:1915,0
DA:1916,0
DA:1917,0
DA:1918,0
DA:1919,0
DA:1921,0
DA:1922,0
DA:1923,0
DA:1924,0
DA:1927,0
DA:1929,0
DA:1930,0
DA:1931,0
DA:1934,0
DA:1935,0
DA:1938,0
DA:1941,0
DA:1942,0
DA:1943,0
DA:1944,0
DA:1945,0
DA:1948,0
DA:1949,0
DA:1950,0
DA:1951,0
DA:1952,0
DA:1953,0
DA:1954,0
DA:1955,0
DA:1956,0
DA:1957,0
DA:1958,0
DA:1959,0
DA:1960,0
DA:1962,0
DA:1963,0
DA:1964,0
DA:1965,0
DA:1966,0
DA:1969,0
DA:1970,0
DA:1971,0
DA:1972,0
DA:1973,0
DA:1974,0
DA:1975,0
DA:1976,0
DA:1978,0
DA:1979,0
DA:1981,0
DA:1982,0
DA:1983,0
DA:1984,0
DA:1985,0
DA:1986,0
DA:1987,0
DA:1988,0
DA:1989,0
DA:1991,0
DA:1993,0
DA:1994,0
DA:1995,0
DA:1997,0
DA:1999,0
DA:2000,0
DA:2001,0
DA:2002,0
DA:2003,0
DA:2005,0
DA:2008,0
DA:2009,0
DA:2010,0
DA:2011,0
DA:2012,0
DA:2013,0
DA:2014,0
DA:2015,0
DA:2016,0
DA:2017,0
DA:2020,0
DA:2021,0
DA:2022,0
DA:2023,0
DA:2024,0
DA:2025,0
DA:2026,0
DA:2027,0
DA:2028,0
DA:2029,0
DA:2030,0
DA:2031,0
DA:2032,0
DA:2034,0
DA:2035,0
DA:2036,0
DA:2037,0
DA:2038,0
DA:2039,0
DA:2040,0
DA:2041,0
DA:2044,0
DA:2045,0
DA:2046,0
DA:2047,0
DA:2049,0
DA:2050,0
DA:2051,0
DA:2052,0
DA:2053,0
DA:2055,0
DA:2056,0
DA:2059,0
DA:2061,0
DA:2062,0
DA:2065,0
DA:2066,0
DA:2067,0
DA:2068,0
DA:2069,0
DA:2070,0
DA:2072,0
DA:2073,0
DA:2075,0
DA:2076,0
DA:2079,0
DA:2080,0
DA:2082,0
DA:2083,0
DA:2084,0
DA:2085,0
DA:2086,0
DA:2087,0
DA:2088,0
DA:2089,0
DA:2090,0
DA:2091,0
DA:2092,0
DA:2093,0
DA:2094,0
DA:2095,0
DA:2096,0
DA:2097,0
DA:2098,0
DA:2100,0
DA:2102,0
DA:2103,0
DA:2104,0
DA:2105,0
DA:2108,0
DA:2109,0
DA:2113,0
DA:2114,0
DA:2115,0
DA:2116,0
DA:2117,0
DA:2118,0
DA:2119,0
DA:2120,0
DA:2121,0
DA:2122,0
DA:2123,0
DA:2124,0
DA:2125,0
DA:2126,0
DA:2127,0
DA:2128,0
DA:2129,0
DA:2130,0
DA:2131,0
DA:2132,0
DA:2133,0
DA:2134,0
DA:2135,0
DA:2136,0
DA:2137,0
DA:2138,0
DA:2139,0
DA:2140,0
DA:2141,0
DA:2142,0
DA:2143,0
DA:2144,0
DA:2145,0
DA:2146,0
DA:2147,0
DA:2148,0
DA:2149,0
DA:2150,0
DA:2151,0
DA:2152,0
DA:2153,0
DA:2154,0
DA:2155,0
DA:2156,0
DA:2157,0
DA:2158,0
DA:2159,0
DA:2160,0
DA:2161,0
DA:2162,0
DA:2163,0
DA:2164,0
DA:2165,0
DA:2166,0
DA:2167,0
DA:2168,0
DA:2169,0
DA:2170,0
DA:2171,0
DA:2172,0
DA:2173,0
DA:2174,0
DA:2175,0
DA:2176,0
DA:2177,0
DA:2178,0
DA:2179,0
DA:2180,0
DA:2181,0
DA:2182,0
DA:2183,0
DA:2184,0
DA:2185,0
DA:2186,0
DA:2187,0
DA:2188,0
DA:2189,0
DA:2190,0
DA:2191,0
DA:2192,0
DA:2193,0
DA:2194,0
DA:2195,0
DA:2196,0
DA:2197,0
DA:2198,0
DA:2199,0
DA:2200,0
DA:2201,0
DA:2202,0
DA:2203,0
DA:2204,0
DA:2205,0
DA:2206,0
DA:2207,0
DA:2208,0
DA:2209,0
DA:2210,0
DA:2211,0
DA:2212,0
DA:2213,0
DA:2214,0
DA:2215,0
DA:2216,0
DA:2217,0
DA:2218,0
DA:2219,0
DA:2220,0
DA:2221,0
DA:2222,0
DA:2223,0
DA:2224,0
DA:2225,0
DA:2226,0
DA:2227,0
DA:2228,0
DA:2229,0
DA:2230,0
DA:2231,0
DA:2232,0
DA:2233,0
DA:2234,0
DA:2235,0
DA:2236,0
DA:2237,0
DA:2238,0
DA:2239,0
DA:2240,0
DA:2241,0
DA:2242,0
DA:2243,0
DA:2244,0
DA:2245,0
DA:2246,0
DA:2247,0
DA:2248,0
DA:2249,0
DA:2250,0
DA:2251,0
DA:2252,0
DA:2253,0
DA:2254,0
DA:2255,0
DA:2256,0
DA:2257,0
DA:2258,0
DA:2259,0
DA:2260,0
DA:2261,0
DA:2262,0
DA:2263,0
DA:2264,0
DA:2265,0
DA:2266,0
DA:2267,0
DA:2268,0
DA:2269,0
DA:2270,0
DA:2271,0
DA:2272,0
DA:2273,0
DA:2274,0
DA:2275,0
DA:2276,0
DA:2277,0
DA:2278,0
DA:2279,0
DA:2280,0
DA:2281,0
DA:2282,0
DA:2283,0
DA:2284,0
DA:2285,0
DA:2286,0
DA:2287,0
DA:2288,0
DA:2289,0
DA:2290,0
DA:2291,0
DA:2292,0
DA:2293,0
DA:2294,0
DA:2295,0
DA:2296,0
DA:2297,0
DA:2298,0
DA:2299,0
DA:2300,0
DA:2301,0
DA:2302,0
DA:2303,0
DA:2304,0
DA:2305,0
DA:2306,0
DA:2307,0
DA:2308,0
DA:2309,0
DA:2310,0
DA:2311,0
DA:2312,0
DA:2313,0
DA:2314,0
DA:2315,0
DA:2316,0
DA:2317,0
DA:2318,0
DA:2319,0
DA:2320,0
DA:2321,0
DA:2322,0
DA:2323,0
DA:2324,0
DA:2325,0
DA:2326,0
DA:2327,0
DA:2328,0
DA:2329,0
DA:2330,0
DA:2331,0
DA:2332,0
DA:2333,0
DA:2334,0
DA:2335,0
DA:2336,0
DA:2337,0
DA:2338,0
DA:2339,0
DA:2340,0
DA:2341,0
DA:2342,0
DA:2343,0
DA:2344,0
DA:2345,0
DA:2346,0
DA:2347,0
DA:2348,0
DA:2349,0
DA:2350,0
DA:2351,0
DA:2352,0
DA:2353,0
DA:2354,0
DA:2355,0
DA:2356,0
DA:2357,0
DA:2358,0
DA:2359,0
DA:2360,0
DA:2361,0
DA:2362,0
DA:2363,0
DA:2364,0
DA:2365,0
DA:2366,0
DA:2367,0
DA:2368,0
DA:2369,0
DA:2370,0
DA:2371,0
DA:2372,0
DA:2373,0
DA:2374,0
DA:2375,0
DA:2376,0
DA:2377,0
DA:2378,0
DA:2379,0
DA:2380,0
DA:2381,0
DA:2382,0
DA:2388,10
DA:2389,10
DA:2390,10
DA:2391,10
DA:2392,10
DA:2393,10
DA:2394,10
DA:2395,10
DA:2396,10
DA:2397,10
DA:2398,10
DA:2399,10
DA:2400,10
DA:2401,10
DA:2402,10
DA:2403,10
DA:2404,10
DA:2405,10
DA:2408,1
DA:2409,1
DA:2410,1
DA:2411,1
DA:2412,1
DA:2413,1
DA:2414,1
DA:2415,1
DA:2416,1
DA:2417,1
DA:2418,1
DA:2419,1
DA:2420,1
DA:2421,1
DA:2422,1
DA:2423,1
DA:2424,1
DA:2425,1
DA:2426,1
DA:2427,1
DA:2428,1
DA:2429,1
DA:2430,1
DA:2431,1
DA:2432,1
DA:2433,1
DA:2434,1
DA:2435,1
DA:2436,1
DA:2437,1
DA:2438,2
DA:2439,2
DA:2440,1
DA:2443,1
DA:2444,1
DA:2445,1
DA:2446,1
DA:2447,1
DA:2448,1
DA:2449,1
DA:2452,1
DA:2453,1
DA:2456,1
DA:2457,1
DA:2458,1
DA:2461,1
DA:2462,1
DA:2463,1
DA:2464,1
DA:2465,1
DA:2466,1
DA:2467,1
DA:2468,1
DA:2469,1
DA:2470,1
DA:2471,1
DA:2472,1
DA:2473,1
DA:2474,1
DA:2475,1
DA:2476,1
DA:2477,1
DA:2478,1
DA:2479,1
DA:2480,1
DA:2481,1
DA:2482,1
DA:2483,1
DA:2484,1
DA:2485,1
DA:2486,1
DA:2487,1
DA:2488,1
DA:2489,1
DA:2490,1
DA:2491,1
DA:2492,1
DA:2495,1
DA:2505,1
DA:2506,1
DA:2507,1
DA:2508,1
DA:2509,1
DA:2510,1
DA:2511,1
DA:2512,1
DA:2513,1
DA:2514,1
DA:2515,1
DA:2516,1
DA:2517,1
DA:2518,1
DA:2519,1
DA:2520,1
DA:2521,1
DA:2522,1
DA:2523,1
DA:2524,1
DA:2525,1
DA:2526,1
DA:2527,1
DA:2528,1
DA:2529,1
DA:2530,1
DA:2531,1
DA:2532,1
DA:2533,1
DA:2534,1
DA:2535,1
DA:2536,1
DA:2537,1
DA:2538,1
DA:2539,1
DA:2540,1
DA:2541,1
DA:2543,6
DA:2544,5
DA:2545,5
DA:2546,5
DA:2547,5
DA:2548,5
DA:2549,0
DA:2557,1
DA:2560,1
DA:2561,1
DA:2562,1
DA:2563,1
DA:2564,1
DA:2565,1
DA:2568,1
DA:2569,0
DA:2570,0
DA:2571,0
DA:2572,0
DA:2573,0
DA:2574,0
DA:2575,0
DA:2578,0
DA:2579,0
DA:2580,0
DA:2581,0
DA:2582,1
DA:2583,1
DA:2585,9
DA:2586,9
DA:2587,5
DA:2589,4
DA:2591,9
DA:2594,1
DA:2595,1
DA:2596,1
DA:2597,1
DA:2598,1
DA:2599,1
DA:2600,1
DA:2601,1
DA:2602,1
DA:2603,1
DA:2604,1
DA:2605,1
DA:2606,1
DA:2607,1
DA:2608,1
DA:2609,1
DA:2610,1
DA:2611,1
DA:2612,1
DA:2613,1
DA:2614,1
DA:2615,1
DA:2616,1
DA:2617,1
DA:2618,1
DA:2619,1
DA:2620,1
DA:2621,1
DA:2622,1
DA:2623,1
DA:2624,1
DA:2625,1
DA:2626,1
DA:2627,1
DA:2628,1
DA:2629,1
DA:2630,1
DA:2631,1
DA:2632,1
DA:2633,1
DA:2636,1
DA:2637,1
DA:2638,1
DA:2639,1
DA:2642,1
DA:2643,1
DA:2644,1
DA:2645,1
DA:2646,1
DA:2649,1
DA:2650,1
DA:2651,1
DA:2652,1
DA:2653,1
DA:2654,1
DA:2655,1
DA:2656,1
DA:2657,1
DA:2658,1
DA:2659,1
DA:2660,1
DA:2661,1
DA:2662,0
DA:2666,1
DA:2667,1
DA:2668,0
DA:2672,1
DA:2673,1
DA:2674,0
DA:2678,1
DA:2681,1
DA:2682,1
DA:2683,1
DA:2684,1
DA:2685,1
DA:2686,1
DA:2687,1
DA:2688,1
DA:2689,1
DA:2690,1
DA:2691,1
DA:2692,1
DA:2693,1
DA:2695,7
DA:2696,6
DA:2697,6
DA:2698,0
DA:2711,1
DA:2712,1
DA:2713,1
DA:2714,1
DA:2715,1
DA:2716,1
DA:2717,1
DA:2718,1
DA:2719,1
DA:2720,1
DA:2721,1
DA:2722,1
DA:2723,1
DA:2724,1
DA:2725,1
DA:2726,1
DA:2727,1
DA:2728,1
DA:2729,1
DA:2730,1
DA:2732,4
DA:2733,3
DA:2734,3
DA:2735,3
DA:2736,0
DA:2740,0
DA:2755,1
DA:2758,1
DA:2759,1
DA:2760,1
DA:2761,1
DA:2762,0
DA:2765,1
DA:2766,1
DA:2767,0
DA:2770,1
DA:2771,1
DA:2772,0
DA:2773,1
DA:2776,1
DA:2778,1
DA:2779,1
DA:2780,275
DA:2782,274
DA:2783,0
DA:2787,274
DA:2788,274
DA:2789,0
DA:2793,274
DA:2794,0
DA:2797,0
DA:2798,0
DA:2799,1
DA:2803,0
DA:2804,0
DA:2805,0
DA:2806,0
DA:2807,0
DA:2808,0
DA:2809,0
DA:2810,0
DA:2811,0
DA:2812,0
DA:2813,0
DA:2814,0
DA:2815,0
DA:2816,0
DA:2817,0
DA:2818,0
DA:2819,0
DA:2820,0
DA:2821,0
DA:2822,0
DA:2823,0
DA:2824,0
DA:2825,0
DA:2826,0
DA:2827,0
DA:2828,0
DA:2831,1
DA:2832,1
DA:2833,1
DA:2834,1
DA:2835,1
DA:2836,1
DA:2837,1
DA:2838,1
DA:2839,1
DA:2840,1
DA:2841,1
DA:2842,1
DA:2843,1
DA:2844,1
DA:2845,1
DA:2846,1
DA:2847,1
DA:2848,1
DA:2849,1
DA:2850,1
DA:2851,1
DA:2852,1
DA:2853,1
DA:2854,1
DA:2855,1
DA:2856,1
DA:2857,1
DA:2858,1
DA:2859,1
DA:2860,1
DA:2861,1
DA:2864,1
DA:2865,1
DA:2866,1
DA:2867,1
DA:2868,1
DA:2869,1
DA:2870,1
DA:2871,1
DA:2872,1
DA:2873,1
DA:2874,1
DA:2875,1
DA:2876,1
DA:2877,1
DA:2878,1
DA:2879,1
DA:2880,1
DA:2881,1
DA:2882,1
DA:2883,1
DA:2884,1
DA:2885,1
DA:2886,1
DA:2887,1
DA:2888,1
DA:2889,1
DA:2890,1
DA:2891,1
DA:2892,1
DA:2895,1
DA:2896,1
DA:2897,1
DA:2898,1
DA:2899,1
DA:2900,1
DA:2901,1
DA:2902,1
DA:2903,1
DA:2904,1
DA:2905,1
DA:2906,1
DA:2907,1
DA:2908,1
DA:2909,1
DA:2910,1
DA:2911,1
DA:2912,1
DA:2913,1
DA:2916,1
DA:2917,1
DA:2918,1
DA:2921,1
DA:2924,1
DA:2925,1
DA:2926,1
DA:2927,1
DA:2930,1
DA:2931,1
DA:2932,1
DA:2933,1
DA:2936,1
DA:2937,1
DA:2938,1
DA:2939,1
DA:2942,1
DA:2943,1
DA:2944,1
DA:2945,1
DA:2948,1
DA:2949,1
DA:2950,1
DA:2951,1
DA:2954,1
DA:2955,1
DA:2956,1
DA:2957,1
DA:2958,1
DA:2961,1
DA:2962,1
DA:2963,1
DA:2964,1
DA:2965,1
DA:2966,1
DA:2967,1
DA:2970,1
DA:2971,1
DA:2972,1
DA:2973,1
DA:2974,1
DA:2975,1
DA:2976,1
DA:2977,1
DA:2980,1
DA:2981,1
DA:2982,1
DA:2985,1
DA:2986,1
DA:2987,1
DA:2990,1
DA:2991,1
DA:2992,1
DA:2993,1
DA:2994,1
DA:2995,1
DA:2998,1
DA:2999,1
DA:3000,1
DA:3001,1
DA:3002,1
DA:3003,1
DA:3004,1
DA:3005,1
DA:3006,1
DA:3007,1
DA:3008,1
DA:3009,1
DA:3010,1
DA:3011,1
DA:3012,1
DA:3013,1
DA:3014,1
DA:3015,1
DA:3016,1
DA:3017,1
DA:3018,1
DA:3019,1
DA:3020,1
DA:3021,1
DA:3022,1
DA:3023,1
DA:3024,1
DA:3025,1
DA:3026,1
DA:3027,1
DA:3028,1
DA:3029,1
DA:3030,1
DA:3031,1
DA:3032,1
DA:3033,1
DA:3034,1
DA:3035,1
DA:3036,1
DA:3037,1
DA:3038,1
DA:3039,1
DA:3040,1
DA:3041,1
DA:3042,1
DA:3043,1
DA:3044,1
DA:3045,1
DA:3046,1
DA:3047,1
DA:3048,1
DA:3049,1
DA:3050,1
DA:3051,1
DA:3052,1
DA:3053,1
DA:3054,1
DA:3055,1
DA:3058,1
DA:3059,1
DA:3060,1
DA:3061,1
DA:3062,1
DA:3063,1
DA:3064,1
DA:3065,1
DA:3066,1
DA:3067,1
DA:3068,1
DA:3069,1
DA:3070,1
DA:3071,1
DA:3072,1
DA:3073,1
DA:3074,1
DA:3075,1
DA:3076,1
DA:3077,1
DA:3078,1
DA:3079,1
DA:3080,1
DA:3081,1
DA:3082,1
DA:3083,1
DA:3084,1
DA:3085,1
DA:3086,1
DA:3087,1
DA:3088,1
DA:3089,1
DA:3090,1
DA:3091,1
DA:3092,1
DA:3093,1
DA:3094,1
DA:3095,1
DA:3096,1
DA:3097,1
DA:3098,1
DA:3099,1
DA:3100,1
DA:3101,1
DA:3102,1
DA:3103,1
DA:3104,1
DA:3105,1
DA:3106,1
DA:3107,1
DA:3108,1
DA:3109,1
DA:3110,1
DA:3111,1
DA:3112,1
DA:3113,1
DA:3114,1
DA:3115,1
DA:3116,1
DA:3117,1
DA:3118,1
DA:3119,1
DA:3120,1
DA:3121,1
DA:3122,1
DA:3123,1
DA:3124,1
DA:3125,1
DA:3126,1
DA:3127,1
DA:3128,1
DA:3129,1
DA:3130,1
DA:3131,1
DA:3132,1
DA:3133,2
DA:3134,1
DA:3137,1
DA:3138,1
DA:3139,1
DA:3140,1
DA:3141,1
DA:3142,1
DA:3143,1
DA:3144,1
DA:3145,1
DA:3148,1
DA:3149,1
DA:3150,1
DA:3151,1
DA:3152,1
DA:3153,1
DA:3156,1
DA:3157,1
DA:3158,1
DA:3159,1
DA:3162,1
DA:3163,1
DA:3164,1
DA:3165,1
DA:3166,1
DA:3169,1
DA:3170,1
DA:3173,1
DA:3174,1
DA:3175,1
DA:3178,1
DA:3179,1
DA:3180,1
DA:3181,1
DA:3184,1
DA:3185,1
DA:3186,1
DA:3187,1
DA:3190,1
DA:3191,1
DA:3192,1
DA:3193,1
DA:3194,1
DA:3197,1
DA:3198,1
DA:3199,1
DA:3202,1
DA:3203,1
DA:3204,1
DA:3205,1
DA:3206,1
DA:3207,1
DA:3208,1
DA:3209,1
DA:3210,1
DA:3211,1
DA:3212,1
DA:3213,1
DA:3214,1
DA:3215,1
DA:3216,1
DA:3217,1
DA:3218,1
DA:3219,1
DA:3220,1
DA:3221,1
DA:3222,1
DA:3223,1
DA:3224,1
DA:3225,1
DA:3226,1
DA:3227,1
DA:3228,1
DA:3229,1
DA:3232,1
DA:3233,1
DA:3234,1
DA:3235,1
DA:3236,1
DA:3237,1
DA:3238,1
DA:3239,1
DA:3240,1
DA:3241,1
DA:3242,1
DA:3243,1
DA:3244,1
DA:3245,1
DA:3246,1
DA:3247,1
DA:3248,1
DA:3249,1
DA:3250,1
DA:3251,1
DA:3252,1
DA:3253,1
DA:3254,1
DA:3255,1
DA:3256,1
DA:3257,1
DA:3260,1
DA:3261,1
DA:3262,1
DA:3263,1
DA:3264,1
DA:3265,1
DA:3268,1
DA:3269,1
DA:3270,1
DA:3271,1
DA:3272,1
DA:3273,1
DA:3276,1
DA:3277,1
DA:3278,1
DA:3279,1
DA:3280,1
DA:3281,1
DA:3282,1
DA:3285,1
DA:3286,1
DA:3287,1
DA:3288,1
DA:3289,1
DA:3292,1
DA:3293,1
DA:3294,1
DA:3297,1
DA:3298,1
DA:3301,1
DA:3302,1
DA:3303,1
DA:3304,1
DA:3307,1
DA:3308,1
DA:3309,1
DA:3310,1
DA:3311,1
DA:3314,1
DA:3319,1
DA:3320,1
DA:3321,1
DA:3322,1
DA:3323,1
DA:3324,1
DA:3325,1
DA:3326,1
DA:3327,1
DA:3330,1
DA:3331,1
DA:3332,1
DA:3333,1
DA:3334,1
DA:3335,1
DA:3336,1
DA:3337,1
DA:3338,1
DA:3341,1
DA:3342,1
DA:3343,1
DA:3344,1
DA:3345,1
DA:3346,1
DA:3349,1
DA:3350,1
DA:3351,1
DA:3352,1
DA:3353,1
DA:3354,1
DA:3355,1
DA:3356,1
DA:3357,1
DA:3360,1
DA:3361,1
DA:3364,1
DA:3365,1
DA:3366,1
DA:3367,1
DA:3368,1
DA:3369,1
DA:3370,1
DA:3371,1
DA:3372,1
DA:3373,1
DA:3374,1
DA:3375,1
DA:3376,1
DA:3377,1
DA:3378,1
DA:3379,1
DA:3380,1
DA:3381,1
DA:3382,1
DA:3383,1
DA:3384,1
DA:3387,1
DA:3388,1
DA:3389,1
DA:3390,1
DA:3391,1
DA:3392,1
DA:3393,1
DA:3394,1
DA:3395,1
DA:3396,1
DA:3397,1
DA:3398,1
DA:3399,1
DA:3400,1
DA:3401,1
DA:3402,1
DA:3403,1
DA:3404,1
DA:3405,1
DA:3406,1
DA:3407,1
DA:3408,1
DA:3409,1
DA:3412,1
DA:3413,1
DA:3414,1
DA:3415,1
DA:3416,1
DA:3417,1
DA:3418,1
DA:3419,1
DA:3420,1
DA:3421,1
DA:3422,1
DA:3423,1
DA:3424,1
DA:3425,1
DA:3426,1
DA:3427,1
DA:3428,1
DA:3429,1
DA:3430,1
DA:3431,1
DA:3432,1
DA:3433,1
DA:3434,1
DA:3435,1
DA:3436,1
DA:3437,1
DA:3438,1
DA:3439,1
DA:3440,1
DA:3441,1
DA:3442,1
DA:3443,1
DA:3444,1
DA:3445,1
DA:3446,1
DA:3447,1
DA:3448,1
DA:3449,1
DA:3450,1
DA:3451,1
DA:3452,1
DA:3453,1
DA:3454,1
DA:3455,1
DA:3456,1
DA:3457,1
DA:3458,1
DA:3459,1
DA:3460,1
DA:3461,1
DA:3462,1
DA:3463,1
DA:3464,1
DA:3465,1
DA:3466,1
DA:3467,1
DA:3468,1
DA:3469,1
DA:3470,1
DA:3471,1
DA:3472,1
DA:3473,1
DA:3474,1
DA:3475,1
DA:3476,1
DA:3477,1
DA:3478,1
DA:3479,1
DA:3480,1
DA:3481,1
DA:3482,1
DA:3483,1
DA:3484,1
DA:3485,1
DA:3486,1
DA:3489,1
DA:3490,1
DA:3491,1
DA:3492,1
DA:3493,1
DA:3494,1
DA:3495,1
DA:3496,1
DA:3499,1
DA:3500,1
DA:3501,1
DA:3502,1
DA:3503,1
DA:3504,1
DA:3505,1
DA:3506,1
DA:3507,1
DA:3508,1
DA:3509,1
DA:3510,1
DA:3511,1
DA:3512,1
DA:3513,1
DA:3514,1
DA:3515,1
DA:3516,1
DA:3517,1
DA:3518,1
DA:3519,1
DA:3520,1
DA:3521,1
DA:3522,1
DA:3523,1
DA:3524,1
DA:3525,1
DA:3526,1
DA:3527,1
DA:3530,1
DA:3531,1
DA:3532,1
DA:3533,1
DA:3534,1
DA:3535,1
DA:3536,1
DA:3537,1
DA:3538,1
DA:3539,1
DA:3540,1
DA:3541,1
DA:3542,1
DA:3543,1
DA:3544,1
DA:3545,1
DA:3546,1
DA:3547,1
DA:3548,1
DA:3549,1
DA:3550,1
DA:3551,1
DA:3552,1
DA:3553,1
DA:3554,1
DA:3555,1
DA:3556,1
DA:3557,1
DA:3560,1
DA:3561,1
DA:3562,1
DA:3563,1
DA:3564,1
DA:3565,1
DA:3566,1
DA:3567,1
DA:3568,1
DA:3569,1
DA:3570,1
DA:3571,1
DA:3572,1
DA:3573,1
DA:3574,1
DA:3575,1
DA:3576,1
DA:3577,1
DA:3578,1
DA:3579,1
DA:3580,1
DA:3581,1
DA:3582,1
DA:3583,1
DA:3584,1
DA:3585,1
DA:3586,1
DA:3587,1
DA:3590,1
DA:3591,1
DA:3592,1
DA:3593,1
DA:3594,1
DA:3597,1
DA:3598,1
DA:3601,1
DA:3602,1
DA:3605,1
DA:3606,1
DA:3607,1
DA:3608,1
DA:3609,1
DA:3612,1
DA:3613,1
DA:3614,1
DA:3615,1
DA:3616,1
DA:3619,1
DA:3620,1
DA:3622,1
DA:3623,1
DA:3626,1
DA:3627,1
DA:3630,1
DA:3631,1
DA:3634,1
DA:3635,1
DA:3638,1
DA:3639,1
DA:3640,1
DA:3641,1
DA:3642,1
DA:3643,1
DA:3644,1
DA:3645,1
DA:3646,1
DA:3647,1
DA:3648,1
DA:3649,1
DA:3650,1
DA:3651,1
DA:3652,1
DA:3653,1
DA:3654,1
DA:3655,1
DA:3656,1
DA:3657,1
DA:3658,1
DA:3659,1
DA:3660,1
DA:3661,1
DA:3662,1
DA:3663,1
DA:3664,1
DA:3665,1
DA:3666,1
DA:3667,1
DA:3668,1
DA:3669,1
DA:3670,1
DA:3671,1
DA:3672,1
DA:3673,1
DA:3674,1
DA:3675,1
DA:3676,1
DA:3677,1
DA:3678,1
DA:3679,1
DA:3680,1
DA:3681,1
DA:3682,1
DA:3683,1
DA:3684,1
DA:3685,1
DA:3686,1
DA:3687,1
DA:3688,1
DA:3689,1
DA:3690,1
DA:3691,1
DA:3692,1
DA:3693,1
DA:3694,1
DA:3695,1
DA:3696,1
DA:3697,1
DA:3698,1
DA:3699,1
DA:3700,1
DA:3703,1
DA:3704,1
DA:3707,1
DA:3708,1
DA:3711,1
DA:3712,1
DA:3715,1
DA:3716,1
DA:3717,1
DA:3718,1
DA:3719,1
DA:3720,1
DA:3721,1
DA:3722,1
DA:3725,1
DA:3726,1
DA:3727,1
DA:3730,1
DA:3731,1
DA:3732,1
DA:3735,1
DA:3736,1
DA:3737,1
DA:3738,1
DA:3741,1
DA:3742,1
DA:3745,1
DA:3746,1
DA:3749,1
DA:3750,1
DA:3753,1
DA:3754,1
DA:3757,1
DA:3758,1
DA:3759,1
DA:3762,1
DA:3763,1
DA:3764,1
DA:3765,1
DA:3766,1
DA:3767,1
DA:3768,1
DA:3771,1
DA:3772,1
DA:3773,1
DA:3776,1
DA:3777,1
DA:3778,1
DA:3781,1
DA:3782,1
DA:3783,1
DA:3786,1
DA:3787,1
DA:3788,1
DA:3791,1
DA:3792,1
DA:3793,1
DA:3794,1
DA:3795,1
DA:3796,1
DA:3797,1
DA:3798,1
DA:3799,1
DA:3800,1
DA:3801,1
DA:3802,1
DA:3803,1
DA:3804,1
DA:3805,1
DA:3808,1
DA:3809,1
DA:3810,1
DA:3811,1
DA:3812,1
DA:3813,1
DA:3816,1
DA:3817,1
DA:3818,1
DA:3821,1
DA:3822,1
DA:3823,1
DA:3825,10
DA:3826,9
DA:3827,9
DA:3830,9
DA:3831,9
DA:3832,6
DA:3833,4
DA:3834,2
DA:3837,9
DA:3839,1
BRF:0
BRH:0
LF:3248
LH:1619
end_of_record
SF:/home/jack/tools/rust/zwift-race-finder/src/regression_test.rs
FN:96,_RNCNCNvNtNtCsdY1tzCMfrk2_17zwift_race_finder15regression_test5testss_30test_race_predictions_accuracys_00B9_
FN:97,_RNCNCNvNtNtCsdY1tzCMfrk2_17zwift_race_finder15regression_test5testss_30test_race_predictions_accuracys_0s_0B9_
FN:130,_RNCNvNtNtCsdY1tzCMfrk2_17zwift_race_finder15regression_test5testss_28test_specific_route_accuracy0B7_
FN:131,_RNCNvNtNtCsdY1tzCMfrk2_17zwift_race_finder15regression_test5testss_28test_specific_route_accuracys_0B7_
FN:47,_RNCNvNtNtCsdY1tzCMfrk2_17zwift_race_finder15regression_test5testss_30test_race_predictions_accuracy0B7_
FN:102,_RNCNvNtNtCsdY1tzCMfrk2_17zwift_race_finder15regression_test5testss_30test_race_predictions_accuracys0_0B7_
FN:93,_RNCNvNtNtCsdY1tzCMfrk2_17zwift_race_finder15regression_test5testss_30test_race_predictions_accuracys_0B7_
FN:155,_RNCNvNtNtCsdY1tzCMfrk2_17zwift_race_finder15regression_test5testss_30test_route_mapping_consistency0B7_
FN:116,_RNvNtNtCsdY1tzCMfrk2_17zwift_race_finder15regression_test5testss_28test_specific_route_accuracy
FN:10,_RNvNtNtCsdY1tzCMfrk2_17zwift_race_finder15regression_test5testss_30test_race_predictions_accuracy
FN:145,_RNvNtNtCsdY1tzCMfrk2_17zwift_race_finder15regression_test5testss_30test_route_mapping_consistency
FNDA:8,_RNCNCNvNtNtCsdY1tzCMfrk2_17zwift_race_finder15regression_test5testss_30test_race_predictions_accuracys_00B9_
FNDA:0,_RNCNCNvNtNtCsdY1tzCMfrk2_17zwift_race_finder15regression_test5testss_30test_race_predictions_accuracys_0s_0B9_
FNDA:3,_RNCNvNtNtCsdY1tzCMfrk2_17zwift_race_finder15regression_test5testss_28test_specific_route_accuracy0B7_
FNDA:0,_RNCNvNtNtCsdY1tzCMfrk2_17zwift_race_finder15regression_test5testss_28test_specific_route_accuracys_0B7_
FNDA:22,_RNCNvNtNtCsdY1tzCMfrk2_17zwift_race_finder15regression_test5testss_30test_race_predictions_accuracy0B7_
FNDA:19,_RNCNvNtNtCsdY1tzCMfrk2_17zwift_race_finder15regression_test5testss_30test_race_predictions_accuracys0_0B7_
FNDA:8,_RNCNvNtNtCsdY1tzCMfrk2_17zwift_race_finder15regression_test5testss_30test_race_predictions_accuracys_0B7_
FNDA:225,_RNCNvNtNtCsdY1tzCMfrk2_17zwift_race_finder15regression_test5testss_30test_route_mapping_consistency0B7_
FNDA:1,_RNvNtNtCsdY1tzCMfrk2_17zwift_race_finder15regression_test5testss_28test_specific_route_accuracy
FNDA:1,_RNvNtNtCsdY1tzCMfrk2_17zwift_race_finder15regression_test5testss_30test_race_predictions_accuracy
FNDA:1,_RNvNtNtCsdY1tzCMfrk2_17zwift_race_finder15regression_test5testss_30test_route_mapping_consistency
FNF:11
FNH:9
DA:10,1
DA:11,1
DA:12,1
DA:13,1
DA:14,1
DA:15,1
DA:16,1
DA:17,1
DA:18,1
DA:19,1
DA:20,1
DA:21,1
DA:23,225
DA:25,225
DA:26,104
DA:27,121
DA:30,121
DA:32,18
DA:33,18
DA:34,18
DA:35,18
DA:36,18
DA:39,103
DA:40,103
DA:41,103
DA:42,103
DA:45,103
DA:46,103
DA:47,22
DA:48,81
DA:49,0
DA:51,103
DA:54,121
DA:55,105
DA:56,105
DA:57,105
DA:58,105
DA:59,105
DA:60,105
DA:61,105
DA:62,105
DA:63,105
DA:64,105
DA:65,105
DA:66,15
DA:67,15
DA:68,15
DA:69,15
DA:70,15
DA:71,15
DA:72,15
DA:73,15
DA:74,90
DA:76,105
DA:77,105
DA:78,16
DA:81,1
DA:82,1
DA:83,1
DA:84,1
DA:85,1
DA:86,1
DA:87,1
DA:88,1
DA:89,1
DA:90,1
DA:91,1
DA:92,1
DA:93,8
DA:94,8
DA:95,8
DA:96,8
DA:97,8
DA:98,8
DA:99,8
DA:100,1
DA:101,1
DA:102,19
DA:104,8
DA:105,8
DA:106,8
DA:109,1
DA:110,0
DA:111,0
DA:112,0
DA:113,1
DA:116,1
DA:117,1
DA:118,1
DA:119,1
DA:120,1
DA:121,1
DA:122,1
DA:123,1
DA:125,4
DA:126,3
DA:128,3
DA:129,3
DA:130,3
DA:131,3
DA:132,3
DA:133,3
DA:134,0
DA:140,0
DA:142,1
DA:145,1
DA:146,1
DA:147,1
DA:148,1
DA:149,1
DA:150,1
DA:151,1
DA:152,1
DA:153,1
DA:155,225
DA:156,59
DA:157,59
DA:158,59
DA:159,59
DA:162,17
DA:163,16
DA:164,10
DA:165,10
DA:166,10
DA:167,10
DA:168,10
DA:169,10
DA:170,10
DA:171,0
DA:173,0
DA:174,0
DA:175,0
DA:176,0
DA:177,0
DA:178,0
DA:179,0
DA:180,0
DA:181,0
DA:182,0
DA:183,0
DA:185,0
DA:186,10
DA:188,1
BRF:0
BRH:0
LF:152
LH:131
end_of_record
SF:/home/jack/tools/rust/zwift-race-finder/src/route_discovery.rs
FN:229,_RNCNvMNtCs1kDST8A3VsF_17zwift_race_finder15route_discoveryNtB4_14RouteDiscovery17format_world_name0B6_
FN:251,_RNCNvMNtCs1kDST8A3VsF_17zwift_race_finder15route_discoveryNtB4_14RouteDiscovery24parse_whatsonzwift_route0B6_
FN:261,_RNCNvMNtCs1kDST8A3VsF_17zwift_race_finder15route_discoveryNtB4_14RouteDiscovery24parse_whatsonzwift_routes0_0B6_
FN:262,_RNCNvMNtCs1kDST8A3VsF_17zwift_race_finder15route_discoveryNtB4_14RouteDiscovery24parse_whatsonzwift_routes1_0B6_
FN:263,_RNCNvMNtCs1kDST8A3VsF_17zwift_race_finder15route_discoveryNtB4_14RouteDiscovery24parse_whatsonzwift_routes2_0B6_
FN:268,_RNCNvMNtCs1kDST8A3VsF_17zwift_race_finder15route_discoveryNtB4_14RouteDiscovery24parse_whatsonzwift_routes3_0B6_
FN:269,_RNCNvMNtCs1kDST8A3VsF_17zwift_race_finder15route_discoveryNtB4_14RouteDiscovery24parse_whatsonzwift_routes4_0B6_
FN:270,_RNCNvMNtCs1kDST8A3VsF_17zwift_race_finder15route_discoveryNtB4_14RouteDiscovery24parse_whatsonzwift_routes5_0B6_
FN:276,_RNCNvMNtCs1kDST8A3VsF_17zwift_race_finder15route_discoveryNtB4_14RouteDiscovery24parse_whatsonzwift_routes6_0B6_
FN:277,_RNCNvMNtCs1kDST8A3VsF_17zwift_race_finder15route_discoveryNtB4_14RouteDiscovery24parse_whatsonzwift_routes7_0B6_
FN:278,_RNCNvMNtCs1kDST8A3VsF_17zwift_race_finder15route_discoveryNtB4_14RouteDiscovery24parse_whatsonzwift_routes8_0B6_
FN:283,_RNCNvMNtCs1kDST8A3VsF_17zwift_race_finder15route_discoveryNtB4_14RouteDiscovery24parse_whatsonzwift_routes9_0B6_
FN:252,_RNCNvMNtCs1kDST8A3VsF_17zwift_race_finder15route_discoveryNtB4_14RouteDiscovery24parse_whatsonzwift_routes_0B6_
FN:284,_RNCNvMNtCs1kDST8A3VsF_17zwift_race_finder15route_discoveryNtB4_14RouteDiscovery24parse_whatsonzwift_routesa_0B6_
FN:285,_RNCNvMNtCs1kDST8A3VsF_17zwift_race_finder15route_discoveryNtB4_14RouteDiscovery24parse_whatsonzwift_routesb_0B6_
FN:377,_RNCNvMNtCs1kDST8A3VsF_17zwift_race_finder15route_discoveryNtB4_14RouteDiscovery24parse_zwiftinsider_route0B6_
FN:379,_RNCNvMNtCs1kDST8A3VsF_17zwift_race_finder15route_discoveryNtB4_14RouteDiscovery24parse_zwiftinsider_routes0_0B6_
FN:384,_RNCNvMNtCs1kDST8A3VsF_17zwift_race_finder15route_discoveryNtB4_14RouteDiscovery24parse_zwiftinsider_routes1_0B6_
FN:385,_RNCNvMNtCs1kDST8A3VsF_17zwift_race_finder15route_discoveryNtB4_14RouteDiscovery24parse_zwiftinsider_routes2_0B6_
FN:386,_RNCNvMNtCs1kDST8A3VsF_17zwift_race_finder15route_discoveryNtB4_14RouteDiscovery24parse_zwiftinsider_routes3_0B6_
FN:392,_RNCNvMNtCs1kDST8A3VsF_17zwift_race_finder15route_discoveryNtB4_14RouteDiscovery24parse_zwiftinsider_routes4_0B6_
FN:393,_RNCNvMNtCs1kDST8A3VsF_17zwift_race_finder15route_discoveryNtB4_14RouteDiscovery24parse_zwiftinsider_routes5_0B6_
FN:394,_RNCNvMNtCs1kDST8A3VsF_17zwift_race_finder15route_discoveryNtB4_14RouteDiscovery24parse_zwiftinsider_routes6_0B6_
FN:399,_RNCNvMNtCs1kDST8A3VsF_17zwift_race_finder15route_discoveryNtB4_14RouteDiscovery24parse_zwiftinsider_routes7_0B6_
FN:400,_RNCNvMNtCs1kDST8A3VsF_17zwift_race_finder15route_discoveryNtB4_14RouteDiscovery24parse_zwiftinsider_routes8_0B6_
FN:401,_RNCNvMNtCs1kDST8A3VsF_17zwift_race_finder15route_discoveryNtB4_14RouteDiscovery24parse_zwiftinsider_routes9_0B6_
FN:378,_RNCNvMNtCs1kDST8A3VsF_17zwift_race_finder15route_discoveryNtB4_14RouteDiscovery24parse_zwiftinsider_routes_0B6_
FN:102,_RNCNCNvMNtCs1kDST8A3VsF_17zwift_race_finder15route_discoveryNtB6_14RouteDiscovery19search_whatsonzwift00B8_
FN:345,_RNCNCNvMNtCs1kDST8A3VsF_17zwift_race_finder15route_discoveryNtB6_14RouteDiscovery19search_zwiftinsider00B8_
FN:53,_RNCNvMNtCs1kDST8A3VsF_17zwift_race_finder15route_discoveryNtB4_14RouteDiscovery14discover_route0B6_
FN:90,_RNCNvMNtCs1kDST8A3VsF_17zwift_race_finder15route_discoveryNtB4_14RouteDiscovery19search_whatsonzwift0B6_
FN:309,_RNCNvMNtCs1kDST8A3VsF_17zwift_race_finder15route_discoveryNtB4_14RouteDiscovery19search_zwiftinsider0B6_
FN:522,_RNCNvNtNtCsdY1tzCMfrk2_17zwift_race_finder15route_discovery5testss_35test_route_discovery_initialization0B7_
FN:102,_RNCNCNvMNtCsdY1tzCMfrk2_17zwift_race_finder15route_discoveryNtB6_14RouteDiscovery19search_whatsonzwift00B8_
FN:345,_RNCNCNvMNtCsdY1tzCMfrk2_17zwift_race_finder15route_discoveryNtB6_14RouteDiscovery19search_zwiftinsider00B8_
FN:53,_RNCNvMNtCsdY1tzCMfrk2_17zwift_race_finder15route_discoveryNtB4_14RouteDiscovery14discover_route0B6_
FN:229,_RNCNvMNtCsdY1tzCMfrk2_17zwift_race_finder15route_discoveryNtB4_14RouteDiscovery17format_world_name0B6_
FN:90,_RNCNvMNtCsdY1tzCMfrk2_17zwift_race_finder15route_discoveryNtB4_14RouteDiscovery19search_whatsonzwift0B6_
FN:309,_RNCNvMNtCsdY1tzCMfrk2_17zwift_race_finder15route_discoveryNtB4_14RouteDiscovery19search_zwiftinsider0B6_
FN:251,_RNCNvMNtCsdY1tzCMfrk2_17zwift_race_finder15route_discoveryNtB4_14RouteDiscovery24parse_whatsonzwift_route0B6_
FN:261,_RNCNvMNtCsdY1tzCMfrk2_17zwift_race_finder15route_discoveryNtB4_14RouteDiscovery24parse_whatsonzwift_routes0_0B6_
FN:262,_RNCNvMNtCsdY1tzCMfrk2_17zwift_race_finder15route_discoveryNtB4_14RouteDiscovery24parse_whatsonzwift_routes1_0B6_
FN:263,_RNCNvMNtCsdY1tzCMfrk2_17zwift_race_finder15route_discoveryNtB4_14RouteDiscovery24parse_whatsonzwift_routes2_0B6_
FN:268,_RNCNvMNtCsdY1tzCMfrk2_17zwift_race_finder15route_discoveryNtB4_14RouteDiscovery24parse_whatsonzwift_routes3_0B6_
FN:269,_RNCNvMNtCsdY1tzCMfrk2_17zwift_race_finder15route_discoveryNtB4_14RouteDiscovery24parse_whatsonzwift_routes4_0B6_
FN:270,_RNCNvMNtCsdY1tzCMfrk2_17zwift_race_finder15route_discoveryNtB4_14RouteDiscovery24parse_whatsonzwift_routes5_0B6_
FN:276,_RNCNvMNtCsdY1tzCMfrk2_17zwift_race_finder15route_discoveryNtB4_14RouteDiscovery24parse_whatsonzwift_routes6_0B6_
FN:277,_RNCNvMNtCsdY1tzCMfrk2_17zwift_race_finder15route_discoveryNtB4_14RouteDiscovery24parse_whatsonzwift_routes7_0B6_
FN:278,_RNCNvMNtCsdY1tzCMfrk2_17zwift_race_finder15route_discoveryNtB4_14RouteDiscovery24parse_whatsonzwift_routes8_0B6_
FN:283,_RNCNvMNtCsdY1tzCMfrk2_17zwift_race_finder15route_discoveryNtB4_14RouteDiscovery24parse_whatsonzwift_routes9_0B6_
FN:252,_RNCNvMNtCsdY1tzCMfrk2_17zwift_race_finder15route_discoveryNtB4_14RouteDiscovery24parse_whatsonzwift_routes_0B6_
FN:284,_RNCNvMNtCsdY1tzCMfrk2_17zwift_race_finder15route_discoveryNtB4_14RouteDiscovery24parse_whatsonzwift_routesa_0B6_
FN:285,_RNCNvMNtCsdY1tzCMfrk2_17zwift_race_finder15route_discoveryNtB4_14RouteDiscovery24parse_whatsonzwift_routesb_0B6_
FN:377,_RNCNvMNtCsdY1tzCMfrk2_17zwift_race_finder15route_discoveryNtB4_14RouteDiscovery24parse_zwiftinsider_route0B6_
FN:379,_RNCNvMNtCsdY1tzCMfrk2_17zwift_race_finder15route_discoveryNtB4_14RouteDiscovery24parse_zwiftinsider_routes0_0B6_
FN:384,_RNCNvMNtCsdY1tzCMfrk2_17zwift_race_finder15route_discoveryNtB4_14RouteDiscovery24parse_zwiftinsider_routes1_0B6_
FN:385,_RNCNvMNtCsdY1tzCMfrk2_17zwift_race_finder15route_discoveryNtB4_14RouteDiscovery24parse_zwiftinsider_routes2_0B6_
FN:386,_RNCNvMNtCsdY1tzCMfrk2_17zwift_race_finder15route_discoveryNtB4_14RouteDiscovery24parse_zwiftinsider_routes3_0B6_
FN:392,_RNCNvMNtCsdY1tzCMfrk2_17zwift_race_finder15route_discoveryNtB4_14RouteDiscovery24parse_zwiftinsider_routes4_0B6_
FN:393,_RNCNvMNtCsdY1tzCMfrk2_17zwift_race_finder15route_discoveryNtB4_14RouteDiscovery24parse_zwiftinsider_routes5_0B6_
FN:394,_RNCNvMNtCsdY1tzCMfrk2_17zwift_race_finder15route_discoveryNtB4_14RouteDiscovery24parse_zwiftinsider_routes6_0B6_
FN:399,_RNCNvMNtCsdY1tzCMfrk2_17zwift_race_finder15route_discoveryNtB4_14RouteDiscovery24parse_zwiftinsider_routes7_0B6_
FN:400,_RNCNvMNtCsdY1tzCMfrk2_17zwift_race_finder15route_discoveryNtB4_14RouteDiscovery24parse_zwiftinsider_routes8_0B6_
FN:401,_RNCNvMNtCsdY1tzCMfrk2_17zwift_race_finder15route_discoveryNtB4_14RouteDiscovery24parse_zwiftinsider_routes9_0B6_
FN:378,_RNCNvMNtCsdY1tzCMfrk2_17zwift_race_finder15route_discoveryNtB4_14RouteDiscovery24parse_zwiftinsider_routes_0B6_
FN:53,_RNvMNtCsdY1tzCMfrk2_17zwift_race_finder15route_discoveryNtB2_14RouteDiscovery14discover_route
FN:222,_RNvMNtCsdY1tzCMfrk2_17zwift_race_finder15route_discoveryNtB2_14RouteDiscovery17format_world_name
FN:199,_RNvMNtCsdY1tzCMfrk2_17zwift_race_finder15route_discoveryNtB2_14RouteDiscovery18extract_route_name
FN:90,_RNvMNtCsdY1tzCMfrk2_17zwift_race_finder15route_discoveryNtB2_14RouteDiscovery19search_whatsonzwift
FN:309,_RNvMNtCsdY1tzCMfrk2_17zwift_race_finder15route_discoveryNtB2_14RouteDiscovery19search_zwiftinsider
FN:243,_RNvMNtCsdY1tzCMfrk2_17zwift_race_finder15route_discoveryNtB2_14RouteDiscovery24parse_whatsonzwift_route
FN:370,_RNvMNtCsdY1tzCMfrk2_17zwift_race_finder15route_discoveryNtB2_14RouteDiscovery24parse_zwiftinsider_route
FN:570,_RNvNtNtCsdY1tzCMfrk2_17zwift_race_finder15route_discovery5testss_33test_detect_world_from_event_name
FN:528,_RNvNtNtCsdY1tzCMfrk2_17zwift_race_finder15route_discovery5testss_33test_parse_route_from_description
FN:522,_RNvNtNtCsdY1tzCMfrk2_17zwift_race_finder15route_discovery5testss_35test_route_discovery_initialization
FN:143,_RNvMNtCsdY1tzCMfrk2_17zwift_race_finder15route_discoveryNtB2_14RouteDiscovery28detect_world_from_event_name
FN:40,_RNvMNtCsdY1tzCMfrk2_17zwift_race_finder15route_discoveryNtB2_14RouteDiscovery3new
FN:433,_RNvNtCsdY1tzCMfrk2_17zwift_race_finder15route_discovery28parse_route_from_description
FN:53,_RNvMNtCs6l7Ma75WKx0_17zwift_race_finder15route_discoveryNtB2_14RouteDiscovery14discover_route
FN:222,_RNvMNtCs6l7Ma75WKx0_17zwift_race_finder15route_discoveryNtB2_14RouteDiscovery17format_world_name
FN:199,_RNvMNtCs6l7Ma75WKx0_17zwift_race_finder15route_discoveryNtB2_14RouteDiscovery18extract_route_name
FN:90,_RNvMNtCs6l7Ma75WKx0_17zwift_race_finder15route_discoveryNtB2_14RouteDiscovery19search_whatsonzwift
FN:309,_RNvMNtCs6l7Ma75WKx0_17zwift_race_finder15route_discoveryNtB2_14RouteDiscovery19search_zwiftinsider
FN:243,_RNvMNtCs6l7Ma75WKx0_17zwift_race_finder15route_discoveryNtB2_14RouteDiscovery24parse_whatsonzwift_route
FN:370,_RNvMNtCs6l7Ma75WKx0_17zwift_race_finder15route_discoveryNtB2_14RouteDiscovery24parse_zwiftinsider_route
FN:143,_RNvMNtCs6l7Ma75WKx0_17zwift_race_finder15route_discoveryNtB2_14RouteDiscovery28detect_world_from_event_name
FN:40,_RNvMNtCs6l7Ma75WKx0_17zwift_race_finder15route_discoveryNtB2_14RouteDiscovery3new
FN:433,_RNvNtCs6l7Ma75WKx0_17zwift_race_finder15route_discovery28parse_route_from_description
FN:102,_RNCNCNvMNtCs6l7Ma75WKx0_17zwift_race_finder15route_discoveryNtB6_14RouteDiscovery19search_whatsonzwift00B8_
FN:345,_RNCNCNvMNtCs6l7Ma75WKx0_17zwift_race_finder15route_discoveryNtB6_14RouteDiscovery19search_zwiftinsider00B8_
FN:53,_RNCNvMNtCs6l7Ma75WKx0_17zwift_race_finder15route_discoveryNtB4_14RouteDiscovery14discover_route0B6_
FN:229,_RNCNvMNtCs6l7Ma75WKx0_17zwift_race_finder15route_discoveryNtB4_14RouteDiscovery17format_world_name0B6_
FN:90,_RNCNvMNtCs6l7Ma75WKx0_17zwift_race_finder15route_discoveryNtB4_14RouteDiscovery19search_whatsonzwift0B6_
FN:309,_RNCNvMNtCs6l7Ma75WKx0_17zwift_race_finder15route_discoveryNtB4_14RouteDiscovery19search_zwiftinsider0B6_
FN:251,_RNCNvMNtCs6l7Ma75WKx0_17zwift_race_finder15route_discoveryNtB4_14RouteDiscovery24parse_whatsonzwift_route0B6_
FN:261,_RNCNvMNtCs6l7Ma75WKx0_17zwift_race_finder15route_discoveryNtB4_14RouteDiscovery24parse_whatsonzwift_routes0_0B6_
FN:262,_RNCNvMNtCs6l7Ma75WKx0_17zwift_race_finder15route_discoveryNtB4_14RouteDiscovery24parse_whatsonzwift_routes1_0B6_
FN:263,_RNCNvMNtCs6l7Ma75WKx0_17zwift_race_finder15route_discoveryNtB4_14RouteDiscovery24parse_whatsonzwift_routes2_0B6_
FN:268,_RNCNvMNtCs6l7Ma75WKx0_17zwift_race_finder15route_discoveryNtB4_14RouteDiscovery24parse_whatsonzwift_routes3_0B6_
FN:269,_RNCNvMNtCs6l7Ma75WKx0_17zwift_race_finder15route_discoveryNtB4_14RouteDiscovery24parse_whatsonzwift_routes4_0B6_
FN:270,_RNCNvMNtCs6l7Ma75WKx0_17zwift_race_finder15route_discoveryNtB4_14RouteDiscovery24parse_whatsonzwift_routes5_0B6_
FN:276,_RNCNvMNtCs6l7Ma75WKx0_17zwift_race_finder15route_discoveryNtB4_14RouteDiscovery24parse_whatsonzwift_routes6_0B6_
FN:277,_RNCNvMNtCs6l7Ma75WKx0_17zwift_race_finder15route_discoveryNtB4_14RouteDiscovery24parse_whatsonzwift_routes7_0B6_
FN:278,_RNCNvMNtCs6l7Ma75WKx0_17zwift_race_finder15route_discoveryNtB4_14RouteDiscovery24parse_whatsonzwift_routes8_0B6_
FN:283,_RNCNvMNtCs6l7Ma75WKx0_17zwift_race_finder15route_discoveryNtB4_14RouteDiscovery24parse_whatsonzwift_routes9_0B6_
FN:252,_RNCNvMNtCs6l7Ma75WKx0_17zwift_race_finder15route_discoveryNtB4_14RouteDiscovery24parse_whatsonzwift_routes_0B6_
FN:284,_RNCNvMNtCs6l7Ma75WKx0_17zwift_race_finder15route_discoveryNtB4_14RouteDiscovery24parse_whatsonzwift_routesa_0B6_
FN:285,_RNCNvMNtCs6l7Ma75WKx0_17zwift_race_finder15route_discoveryNtB4_14RouteDiscovery24parse_whatsonzwift_routesb_0B6_
FN:377,_RNCNvMNtCs6l7Ma75WKx0_17zwift_race_finder15route_discoveryNtB4_14RouteDiscovery24parse_zwiftinsider_route0B6_
FN:379,_RNCNvMNtCs6l7Ma75WKx0_17zwift_race_finder15route_discoveryNtB4_14RouteDiscovery24parse_zwiftinsider_routes0_0B6_
FN:384,_RNCNvMNtCs6l7Ma75WKx0_17zwift_race_finder15route_discoveryNtB4_14RouteDiscovery24parse_zwiftinsider_routes1_0B6_
FN:385,_RNCNvMNtCs6l7Ma75WKx0_17zwift_race_finder15route_discoveryNtB4_14RouteDiscovery24parse_zwiftinsider_routes2_0B6_
FN:386,_RNCNvMNtCs6l7Ma75WKx0_17zwift_race_finder15route_discoveryNtB4_14RouteDiscovery24parse_zwiftinsider_routes3_0B6_
FN:392,_RNCNvMNtCs6l7Ma75WKx0_17zwift_race_finder15route_discoveryNtB4_14RouteDiscovery24parse_zwiftinsider_routes4_0B6_
FN:393,_RNCNvMNtCs6l7Ma75WKx0_17zwift_race_finder15route_discoveryNtB4_14RouteDiscovery24parse_zwiftinsider_routes5_0B6_
FN:394,_RNCNvMNtCs6l7Ma75WKx0_17zwift_race_finder15route_discoveryNtB4_14RouteDiscovery24parse_zwiftinsider_routes6_0B6_
FN:399,_RNCNvMNtCs6l7Ma75WKx0_17zwift_race_finder15route_discoveryNtB4_14RouteDiscovery24parse_zwiftinsider_routes7_0B6_
FN:400,_RNCNvMNtCs6l7Ma75WKx0_17zwift_race_finder15route_discoveryNtB4_14RouteDiscovery24parse_zwiftinsider_routes8_0B6_
FN:401,_RNCNvMNtCs6l7Ma75WKx0_17zwift_race_finder15route_discoveryNtB4_14RouteDiscovery24parse_zwiftinsider_routes9_0B6_
FN:378,_RNCNvMNtCs6l7Ma75WKx0_17zwift_race_finder15route_discoveryNtB4_14RouteDiscovery24parse_zwiftinsider_routes_0B6_
FN:102,_RNCNCNvMNtCs2felTZli3Ur_17zwift_race_finder15route_discoveryNtB6_14RouteDiscovery19search_whatsonzwift00B8_
FN:345,_RNCNCNvMNtCs2felTZli3Ur_17zwift_race_finder15route_discoveryNtB6_14RouteDiscovery19search_zwiftinsider00B8_
FN:53,_RNCNvMNtCs2felTZli3Ur_17zwift_race_finder15route_discoveryNtB4_14RouteDiscovery14discover_route0B6_
FN:229,_RNCNvMNtCs2felTZli3Ur_17zwift_race_finder15route_discoveryNtB4_14RouteDiscovery17format_world_name0B6_
FN:90,_RNCNvMNtCs2felTZli3Ur_17zwift_race_finder15route_discoveryNtB4_14RouteDiscovery19search_whatsonzwift0B6_
FN:309,_RNCNvMNtCs2felTZli3Ur_17zwift_race_finder15route_discoveryNtB4_14RouteDiscovery19search_zwiftinsider0B6_
FN:251,_RNCNvMNtCs2felTZli3Ur_17zwift_race_finder15route_discoveryNtB4_14RouteDiscovery24parse_whatsonzwift_route0B6_
FN:261,_RNCNvMNtCs2felTZli3Ur_17zwift_race_finder15route_discoveryNtB4_14RouteDiscovery24parse_whatsonzwift_routes0_0B6_
FN:262,_RNCNvMNtCs2felTZli3Ur_17zwift_race_finder15route_discoveryNtB4_14RouteDiscovery24parse_whatsonzwift_routes1_0B6_
FN:263,_RNCNvMNtCs2felTZli3Ur_17zwift_race_finder15route_discoveryNtB4_14RouteDiscovery24parse_whatsonzwift_routes2_0B6_
FN:268,_RNCNvMNtCs2felTZli3Ur_17zwift_race_finder15route_discoveryNtB4_14RouteDiscovery24parse_whatsonzwift_routes3_0B6_
FN:269,_RNCNvMNtCs2felTZli3Ur_17zwift_race_finder15route_discoveryNtB4_14RouteDiscovery24parse_whatsonzwift_routes4_0B6_
FN:270,_RNCNvMNtCs2felTZli3Ur_17zwift_race_finder15route_discoveryNtB4_14RouteDiscovery24parse_whatsonzwift_routes5_0B6_
FN:276,_RNCNvMNtCs2felTZli3Ur_17zwift_race_finder15route_discoveryNtB4_14RouteDiscovery24parse_whatsonzwift_routes6_0B6_
FN:277,_RNCNvMNtCs2felTZli3Ur_17zwift_race_finder15route_discoveryNtB4_14RouteDiscovery24parse_whatsonzwift_routes7_0B6_
FN:278,_RNCNvMNtCs2felTZli3Ur_17zwift_race_finder15route_discoveryNtB4_14RouteDiscovery24parse_whatsonzwift_routes8_0B6_
FN:283,_RNCNvMNtCs2felTZli3Ur_17zwift_race_finder15route_discoveryNtB4_14RouteDiscovery24parse_whatsonzwift_routes9_0B6_
FN:252,_RNCNvMNtCs2felTZli3Ur_17zwift_race_finder15route_discoveryNtB4_14RouteDiscovery24parse_whatsonzwift_routes_0B6_
FN:284,_RNCNvMNtCs2felTZli3Ur_17zwift_race_finder15route_discoveryNtB4_14RouteDiscovery24parse_whatsonzwift_routesa_0B6_
FN:285,_RNCNvMNtCs2felTZli3Ur_17zwift_race_finder15route_discoveryNtB4_14RouteDiscovery24parse_whatsonzwift_routesb_0B6_
FN:377,_RNCNvMNtCs2felTZli3Ur_17zwift_race_finder15route_discoveryNtB4_14RouteDiscovery24parse_zwiftinsider_route0B6_
FN:379,_RNCNvMNtCs2felTZli3Ur_17zwift_race_finder15route_discoveryNtB4_14RouteDiscovery24parse_zwiftinsider_routes0_0B6_
FN:384,_RNCNvMNtCs2felTZli3Ur_17zwift_race_finder15route_discoveryNtB4_14RouteDiscovery24parse_zwiftinsider_routes1_0B6_
FN:385,_RNCNvMNtCs2felTZli3Ur_17zwift_race_finder15route_discoveryNtB4_14RouteDiscovery24parse_zwiftinsider_routes2_0B6_
FN:386,_RNCNvMNtCs2felTZli3Ur_17zwift_race_finder15route_discoveryNtB4_14RouteDiscovery24parse_zwiftinsider_routes3_0B6_
FN:392,_RNCNvMNtCs2felTZli3Ur_17zwift_race_finder15route_discoveryNtB4_14RouteDiscovery24parse_zwiftinsider_routes4_0B6_
FN:393,_RNCNvMNtCs2felTZli3Ur_17zwift_race_finder15route_discoveryNtB4_14RouteDiscovery24parse_zwiftinsider_routes5_0B6_
FN:394,_RNCNvMNtCs2felTZli3Ur_17zwift_race_finder15route_discoveryNtB4_14RouteDiscovery24parse_zwiftinsider_routes6_0B6_
FN:399,_RNCNvMNtCs2felTZli3Ur_17zwift_race_finder15route_discoveryNtB4_14RouteDiscovery24parse_zwiftinsider_routes7_0B6_
FN:400,_RNCNvMNtCs2felTZli3Ur_17zwift_race_finder15route_discoveryNtB4_14RouteDiscovery24parse_zwiftinsider_routes8_0B6_
FN:401,_RNCNvMNtCs2felTZli3Ur_17zwift_race_finder15route_discoveryNtB4_14RouteDiscovery24parse_zwiftinsider_routes9_0B6_
FN:378,_RNCNvMNtCs2felTZli3Ur_17zwift_race_finder15route_discoveryNtB4_14RouteDiscovery24parse_zwiftinsider_routes_0B6_
FN:53,_RNvMNtCs2felTZli3Ur_17zwift_race_finder15route_discoveryNtB2_14RouteDiscovery14discover_route
FN:222,_RNvMNtCs2felTZli3Ur_17zwift_race_finder15route_discoveryNtB2_14RouteDiscovery17format_world_name
FN:199,_RNvMNtCs2felTZli3Ur_17zwift_race_finder15route_discoveryNtB2_14RouteDiscovery18extract_route_name
FN:90,_RNvMNtCs2felTZli3Ur_17zwift_race_finder15route_discoveryNtB2_14RouteDiscovery19search_whatsonzwift
FN:309,_RNvMNtCs2felTZli3Ur_17zwift_race_finder15route_discoveryNtB2_14RouteDiscovery19search_zwiftinsider
FN:243,_RNvMNtCs2felTZli3Ur_17zwift_race_finder15route_discoveryNtB2_14RouteDiscovery24parse_whatsonzwift_route
FN:370,_RNvMNtCs2felTZli3Ur_17zwift_race_finder15route_discoveryNtB2_14RouteDiscovery24parse_zwiftinsider_route
FN:143,_RNvMNtCs2felTZli3Ur_17zwift_race_finder15route_discoveryNtB2_14RouteDiscovery28detect_world_from_event_name
FN:40,_RNvMNtCs2felTZli3Ur_17zwift_race_finder15route_discoveryNtB2_14RouteDiscovery3new
FN:433,_RNvNtCs2felTZli3Ur_17zwift_race_finder15route_discovery28parse_route_from_description
FN:570,_RNvNtNtCs2felTZli3Ur_17zwift_race_finder15route_discovery5testss_33test_detect_world_from_event_name
FN:528,_RNvNtNtCs2felTZli3Ur_17zwift_race_finder15route_discovery5testss_33test_parse_route_from_description
FN:522,_RNvNtNtCs2felTZli3Ur_17zwift_race_finder15route_discovery5testss_35test_route_discovery_initialization
FN:522,_RNCNvNtNtCs2felTZli3Ur_17zwift_race_finder15route_discovery5testss_35test_route_discovery_initialization0B7_
FNDA:0,_RNCNvMNtCs1kDST8A3VsF_17zwift_race_finder15route_discoveryNtB4_14RouteDiscovery17format_world_name0B6_
FNDA:0,_RNCNvMNtCs1kDST8A3VsF_17zwift_race_finder15route_discoveryNtB4_14RouteDiscovery24parse_whatsonzwift_route0B6_
FNDA:0,_RNCNvMNtCs1kDST8A3VsF_17zwift_race_finder15route_discoveryNtB4_14RouteDiscovery24parse_whatsonzwift_routes0_0B6_
FNDA:0,_RNCNvMNtCs1kDST8A3VsF_17zwift_race_finder15route_discoveryNtB4_14RouteDiscovery24parse_whatsonzwift_routes1_0B6_
FNDA:0,_RNCNvMNtCs1kDST8A3VsF_17zwift_race_finder15route_discoveryNtB4_14RouteDiscovery24parse_whatsonzwift_routes2_0B6_
FNDA:0,_RNCNvMNtCs1kDST8A3VsF_17zwift_race_finder15route_discoveryNtB4_14RouteDiscovery24parse_whatsonzwift_routes3_0B6_
FNDA:0,_RNCNvMNtCs1kDST8A3VsF_17zwift_race_finder15route_discoveryNtB4_14RouteDiscovery24parse_whatsonzwift_routes4_0B6_
FNDA:0,_RNCNvMNtCs1kDST8A3VsF_17zwift_race_finder15route_discoveryNtB4_14RouteDiscovery24parse_whatsonzwift_routes5_0B6_
FNDA:0,_RNCNvMNtCs1kDST8A3VsF_17zwift_race_finder15route_discoveryNtB4_14RouteDiscovery24parse_whatsonzwift_routes6_0B6_
FNDA:0,_RNCNvMNtCs1kDST8A3VsF_17zwift_race_finder15route_discoveryNtB4_14RouteDiscovery24parse_whatsonzwift_routes7_0B6_
FNDA:0,_RNCNvMNtCs1kDST8A3VsF_17zwift_race_finder15route_discoveryNtB4_14RouteDiscovery24parse_whatsonzwift_routes8_0B6_
FNDA:0,_RNCNvMNtCs1kDST8A3VsF_17zwift_race_finder15route_discoveryNtB4_14RouteDiscovery24parse_whatsonzwift_routes9_0B6_
FNDA:0,_RNCNvMNtCs1kDST8A3VsF_17zwift_race_finder15route_discoveryNtB4_14RouteDiscovery24parse_whatsonzwift_routes_0B6_
FNDA:0,_RNCNvMNtCs1kDST8A3VsF_17zwift_race_finder15route_discoveryNtB4_14RouteDiscovery24parse_whatsonzwift_routesa_0B6_
FNDA:0,_RNCNvMNtCs1kDST8A3VsF_17zwift_race_finder15route_discoveryNtB4_14RouteDiscovery24parse_whatsonzwift_routesb_0B6_
FNDA:0,_RNCNvMNtCs1kDST8A3VsF_17zwift_race_finder15route_discoveryNtB4_14RouteDiscovery24parse_zwiftinsider_route0B6_
FNDA:0,_RNCNvMNtCs1kDST8A3VsF_17zwift_race_finder15route_discoveryNtB4_14RouteDiscovery24parse_zwiftinsider_routes0_0B6_
FNDA:0,_RNCNvMNtCs1kDST8A3VsF_17zwift_race_finder15route_discoveryNtB4_14RouteDiscovery24parse_zwiftinsider_routes1_0B6_
FNDA:0,_RNCNvMNtCs1kDST8A3VsF_17zwift_race_finder15route_discoveryNtB4_14RouteDiscovery24parse_zwiftinsider_routes2_0B6_
FNDA:0,_RNCNvMNtCs1kDST8A3VsF_17zwift_race_finder15route_discoveryNtB4_14RouteDiscovery24parse_zwiftinsider_routes3_0B6_
FNDA:0,_RNCNvMNtCs1kDST8A3VsF_17zwift_race_finder15route_discoveryNtB4_14RouteDiscovery24parse_zwiftinsider_routes4_0B6_
FNDA:0,_RNCNvMNtCs1kDST8A3VsF_17zwift_race_finder15route_discoveryNtB4_14RouteDiscovery24parse_zwiftinsider_routes5_0B6_
FNDA:0,_RNCNvMNtCs1kDST8A3VsF_17zwift_race_finder15route_discoveryNtB4_14RouteDiscovery24parse_zwiftinsider_routes6_0B6_
FNDA:0,_RNCNvMNtCs1kDST8A3VsF_17zwift_race_finder15route_discoveryNtB4_14RouteDiscovery24parse_zwiftinsider_routes7_0B6_
FNDA:0,_RNCNvMNtCs1kDST8A3VsF_17zwift_race_finder15route_discoveryNtB4_14RouteDiscovery24parse_zwiftinsider_routes8_0B6_
FNDA:0,_RNCNvMNtCs1kDST8A3VsF_17zwift_race_finder15route_discoveryNtB4_14RouteDiscovery24parse_zwiftinsider_routes9_0B6_
FNDA:0,_RNCNvMNtCs1kDST8A3VsF_17zwift_race_finder15route_discoveryNtB4_14RouteDiscovery24parse_zwiftinsider_routes_0B6_
FNDA:0,_RNCNCNvMNtCs1kDST8A3VsF_17zwift_race_finder15route_discoveryNtB6_14RouteDiscovery19search_whatsonzwift00B8_
FNDA:0,_RNCNCNvMNtCs1kDST8A3VsF_17zwift_race_finder15route_discoveryNtB6_14RouteDiscovery19search_zwiftinsider00B8_
FNDA:0,_RNCNvMNtCs1kDST8A3VsF_17zwift_race_finder15route_discoveryNtB4_14RouteDiscovery14discover_route0B6_
FNDA:0,_RNCNvMNtCs1kDST8A3VsF_17zwift_race_finder15route_discoveryNtB4_14RouteDiscovery19search_whatsonzwift0B6_
FNDA:0,_RNCNvMNtCs1kDST8A3VsF_17zwift_race_finder15route_discoveryNtB4_14RouteDiscovery19search_zwiftinsider0B6_
FNDA:1,_RNCNvNtNtCsdY1tzCMfrk2_17zwift_race_finder15route_discovery5testss_35test_route_discovery_initialization0B7_
FNDA:0,_RNCNCNvMNtCsdY1tzCMfrk2_17zwift_race_finder15route_discoveryNtB6_14RouteDiscovery19search_whatsonzwift00B8_
FNDA:0,_RNCNCNvMNtCsdY1tzCMfrk2_17zwift_race_finder15route_discoveryNtB6_14RouteDiscovery19search_zwiftinsider00B8_
FNDA:0,_RNCNvMNtCsdY1tzCMfrk2_17zwift_race_finder15route_discoveryNtB4_14RouteDiscovery14discover_route0B6_
FNDA:0,_RNCNvMNtCsdY1tzCMfrk2_17zwift_race_finder15route_discoveryNtB4_14RouteDiscovery17format_world_name0B6_
FNDA:0,_RNCNvMNtCsdY1tzCMfrk2_17zwift_race_finder15route_discoveryNtB4_14RouteDiscovery19search_whatsonzwift0B6_
FNDA:0,_RNCNvMNtCsdY1tzCMfrk2_17zwift_race_finder15route_discoveryNtB4_14RouteDiscovery19search_zwiftinsider0B6_
FNDA:0,_RNCNvMNtCsdY1tzCMfrk2_17zwift_race_finder15route_discoveryNtB4_14RouteDiscovery24parse_whatsonzwift_route0B6_
FNDA:0,_RNCNvMNtCsdY1tzCMfrk2_17zwift_race_finder15route_discoveryNtB4_14RouteDiscovery24parse_whatsonzwift_routes0_0B6_
FNDA:0,_RNCNvMNtCsdY1tzCMfrk2_17zwift_race_finder15route_discoveryNtB4_14RouteDiscovery24parse_whatsonzwift_routes1_0B6_
FNDA:0,_RNCNvMNtCsdY1tzCMfrk2_17zwift_race_finder15route_discoveryNtB4_14RouteDiscovery24parse_whatsonzwift_routes2_0B6_
FNDA:0,_RNCNvMNtCsdY1tzCMfrk2_17zwift_race_finder15route_discoveryNtB4_14RouteDiscovery24parse_whatsonzwift_routes3_0B6_
FNDA:0,_RNCNvMNtCsdY1tzCMfrk2_17zwift_race_finder15route_discoveryNtB4_14RouteDiscovery24parse_whatsonzwift_routes4_0B6_
FNDA:0,_RNCNvMNtCsdY1tzCMfrk2_17zwift_race_finder15route_discoveryNtB4_14RouteDiscovery24parse_whatsonzwift_routes5_0B6_
FNDA:0,_RNCNvMNtCsdY1tzCMfrk2_17zwift_race_finder15route_discoveryNtB4_14RouteDiscovery24parse_whatsonzwift_routes6_0B6_
FNDA:0,_RNCNvMNtCsdY1tzCMfrk2_17zwift_race_finder15route_discoveryNtB4_14RouteDiscovery24parse_whatsonzwift_routes7_0B6_
FNDA:0,_RNCNvMNtCsdY1tzCMfrk2_17zwift_race_finder15route_discoveryNtB4_14RouteDiscovery24parse_whatsonzwift_routes8_0B6_
FNDA:0,_RNCNvMNtCsdY1tzCMfrk2_17zwift_race_finder15route_discoveryNtB4_14RouteDiscovery24parse_whatsonzwift_routes9_0B6_
FNDA:0,_RNCNvMNtCsdY1tzCMfrk2_17zwift_race_finder15route_discoveryNtB4_14RouteDiscovery24parse_whatsonzwift_routes_0B6_
FNDA:0,_RNCNvMNtCsdY1tzCMfrk2_17zwift_race_finder15route_discoveryNtB4_14RouteDiscovery24parse_whatsonzwift_routesa_0B6_
FNDA:0,_RNCNvMNtCsdY1tzCMfrk2_17zwift_race_finder15route_discoveryNtB4_14RouteDiscovery24parse_whatsonzwift_routesb_0B6_
FNDA:0,_RNCNvMNtCsdY1tzCMfrk2_17zwift_race_finder15route_discoveryNtB4_14RouteDiscovery24parse_zwiftinsider_route0B6_
FNDA:0,_RNCNvMNtCsdY1tzCMfrk2_17zwift_race_finder15route_discoveryNtB4_14RouteDiscovery24parse_zwiftinsider_routes0_0B6_
FNDA:0,_RNCNvMNtCsdY1tzCMfrk2_17zwift_race_finder15route_discoveryNtB4_14RouteDiscovery24parse_zwiftinsider_routes1_0B6_
FNDA:0,_RNCNvMNtCsdY1tzCMfrk2_17zwift_race_finder15route_discoveryNtB4_14RouteDiscovery24parse_zwiftinsider_routes2_0B6_
FNDA:0,_RNCNvMNtCsdY1tzCMfrk2_17zwift_race_finder15route_discoveryNtB4_14RouteDiscovery24parse_zwiftinsider_routes3_0B6_
FNDA:0,_RNCNvMNtCsdY1tzCMfrk2_17zwift_race_finder15route_discoveryNtB4_14RouteDiscovery24parse_zwiftinsider_routes4_0B6_
FNDA:0,_RNCNvMNtCsdY1tzCMfrk2_17zwift_race_finder15route_discoveryNtB4_14RouteDiscovery24parse_zwiftinsider_routes5_0B6_
FNDA:0,_RNCNvMNtCsdY1tzCMfrk2_17zwift_race_finder15route_discoveryNtB4_14RouteDiscovery24parse_zwiftinsider_routes6_0B6_
FNDA:0,_RNCNvMNtCsdY1tzCMfrk2_17zwift_race_finder15route_discoveryNtB4_14RouteDiscovery24parse_zwiftinsider_routes7_0B6_
FNDA:0,_RNCNvMNtCsdY1tzCMfrk2_17zwift_race_finder15route_discoveryNtB4_14RouteDiscovery24parse_zwiftinsider_routes8_0B6_
FNDA:0,_RNCNvMNtCsdY1tzCMfrk2_17zwift_race_finder15route_discoveryNtB4_14RouteDiscovery24parse_zwiftinsider_routes9_0B6_
FNDA:0,_RNCNvMNtCsdY1tzCMfrk2_17zwift_race_finder15route_discoveryNtB4_14RouteDiscovery24parse_zwiftinsider_routes_0B6_
FNDA:0,_RNvMNtCsdY1tzCMfrk2_17zwift_race_finder15route_discoveryNtB2_14RouteDiscovery14discover_route
FNDA:0,_RNvMNtCsdY1tzCMfrk2_17zwift_race_finder15route_discoveryNtB2_14RouteDiscovery17format_world_name
FNDA:0,_RNvMNtCsdY1tzCMfrk2_17zwift_race_finder15route_discoveryNtB2_14RouteDiscovery18extract_route_name
FNDA:0,_RNvMNtCsdY1tzCMfrk2_17zwift_race_finder15route_discoveryNtB2_14RouteDiscovery19search_whatsonzwift
FNDA:0,_RNvMNtCsdY1tzCMfrk2_17zwift_race_finder15route_discoveryNtB2_14RouteDiscovery19search_zwiftinsider
FNDA:0,_RNvMNtCsdY1tzCMfrk2_17zwift_race_finder15route_discoveryNtB2_14RouteDiscovery24parse_whatsonzwift_route
FNDA:0,_RNvMNtCsdY1tzCMfrk2_17zwift_race_finder15route_discoveryNtB2_14RouteDiscovery24parse_zwiftinsider_route
FNDA:1,_RNvNtNtCsdY1tzCMfrk2_17zwift_race_finder15route_discovery5testss_33test_detect_world_from_event_name
FNDA:1,_RNvNtNtCsdY1tzCMfrk2_17zwift_race_finder15route_discovery5testss_33test_parse_route_from_description
FNDA:1,_RNvNtNtCsdY1tzCMfrk2_17zwift_race_finder15route_discovery5testss_35test_route_discovery_initialization
FNDA:8,_RNvMNtCsdY1tzCMfrk2_17zwift_race_finder15route_discoveryNtB2_14RouteDiscovery28detect_world_from_event_name
FNDA:2,_RNvMNtCsdY1tzCMfrk2_17zwift_race_finder15route_discoveryNtB2_14RouteDiscovery3new
FNDA:8,_RNvNtCsdY1tzCMfrk2_17zwift_race_finder15route_discovery28parse_route_from_description
FNDA:0,_RNvMNtCs6l7Ma75WKx0_17zwift_race_finder15route_discoveryNtB2_14RouteDiscovery14discover_route
FNDA:0,_RNvMNtCs6l7Ma75WKx0_17zwift_race_finder15route_discoveryNtB2_14RouteDiscovery17format_world_name
FNDA:0,_RNvMNtCs6l7Ma75WKx0_17zwift_race_finder15route_discoveryNtB2_14RouteDiscovery18extract_route_name
FNDA:0,_RNvMNtCs6l7Ma75WKx0_17zwift_race_finder15route_discoveryNtB2_14RouteDiscovery19search_whatsonzwift
FNDA:0,_RNvMNtCs6l7Ma75WKx0_17zwift_race_finder15route_discoveryNtB2_14RouteDiscovery19search_zwiftinsider
FNDA:0,_RNvMNtCs6l7Ma75WKx0_17zwift_race_finder15route_discoveryNtB2_14RouteDiscovery24parse_whatsonzwift_route
FNDA:0,_RNvMNtCs6l7Ma75WKx0_17zwift_race_finder15route_discoveryNtB2_14RouteDiscovery24parse_zwiftinsider_route
FNDA:0,_RNvMNtCs6l7Ma75WKx0_17zwift_race_finder15route_discoveryNtB2_14RouteDiscovery28detect_world_from_event_name
FNDA:0,_RNvMNtCs6l7Ma75WKx0_17zwift_race_finder15route_discoveryNtB2_14RouteDiscovery3new
FNDA:0,_RNvNtCs6l7Ma75WKx0_17zwift_race_finder15route_discovery28parse_route_from_description
FNDA:0,_RNCNCNvMNtCs6l7Ma75WKx0_17zwift_race_finder15route_discoveryNtB6_14RouteDiscovery19search_whatsonzwift00B8_
FNDA:0,_RNCNCNvMNtCs6l7Ma75WKx0_17zwift_race_finder15route_discoveryNtB6_14RouteDiscovery19search_zwiftinsider00B8_
FNDA:0,_RNCNvMNtCs6l7Ma75WKx0_17zwift_race_finder15route_discoveryNtB4_14RouteDiscovery14discover_route0B6_
FNDA:0,_RNCNvMNtCs6l7Ma75WKx0_17zwift_race_finder15route_discoveryNtB4_14RouteDiscovery17format_world_name0B6_
FNDA:0,_RNCNvMNtCs6l7Ma75WKx0_17zwift_race_finder15route_discoveryNtB4_14RouteDiscovery19search_whatsonzwift0B6_
FNDA:0,_RNCNvMNtCs6l7Ma75WKx0_17zwift_race_finder15route_discoveryNtB4_14RouteDiscovery19search_zwiftinsider0B6_
FNDA:0,_RNCNvMNtCs6l7Ma75WKx0_17zwift_race_finder15route_discoveryNtB4_14RouteDiscovery24parse_whatsonzwift_route0B6_
FNDA:0,_RNCNvMNtCs6l7Ma75WKx0_17zwift_race_finder15route_discoveryNtB4_14RouteDiscovery24parse_whatsonzwift_routes0_0B6_
FNDA:0,_RNCNvMNtCs6l7Ma75WKx0_17zwift_race_finder15route_discoveryNtB4_14RouteDiscovery24parse_whatsonzwift_routes1_0B6_
FNDA:0,_RNCNvMNtCs6l7Ma75WKx0_17zwift_race_finder15route_discoveryNtB4_14RouteDiscovery24parse_whatsonzwift_routes2_0B6_
FNDA:0,_RNCNvMNtCs6l7Ma75WKx0_17zwift_race_finder15route_discoveryNtB4_14RouteDiscovery24parse_whatsonzwift_routes3_0B6_
FNDA:0,_RNCNvMNtCs6l7Ma75WKx0_17zwift_race_finder15route_discoveryNtB4_14RouteDiscovery24parse_whatsonzwift_routes4_0B6_
FNDA:0,_RNCNvMNtCs6l7Ma75WKx0_17zwift_race_finder15route_discoveryNtB4_14RouteDiscovery24parse_whatsonzwift_routes5_0B6_
FNDA:0,_RNCNvMNtCs6l7Ma75WKx0_17zwift_race_finder15route_discoveryNtB4_14RouteDiscovery24parse_whatsonzwift_routes6_0B6_
FNDA:0,_RNCNvMNtCs6l7Ma75WKx0_17zwift_race_finder15route_discoveryNtB4_14RouteDiscovery24parse_whatsonzwift_routes7_0B6_
FNDA:0,_RNCNvMNtCs6l7Ma75WKx0_17zwift_race_finder15route_discoveryNtB4_14RouteDiscovery24parse_whatsonzwift_routes8_0B6_
FNDA:0,_RNCNvMNtCs6l7Ma75WKx0_17zwift_race_finder15route_discoveryNtB4_14RouteDiscovery24parse_whatsonzwift_routes9_0B6_
FNDA:0,_RNCNvMNtCs6l7Ma75WKx0_17zwift_race_finder15route_discoveryNtB4_14RouteDiscovery24parse_whatsonzwift_routes_0B6_
FNDA:0,_RNCNvMNtCs6l7Ma75WKx0_17zwift_race_finder15route_discoveryNtB4_14RouteDiscovery24parse_whatsonzwift_routesa_0B6_
FNDA:0,_RNCNvMNtCs6l7Ma75WKx0_17zwift_race_finder15route_discoveryNtB4_14RouteDiscovery24parse_whatsonzwift_routesb_0B6_
FNDA:0,_RNCNvMNtCs6l7Ma75WKx0_17zwift_race_finder15route_discoveryNtB4_14RouteDiscovery24parse_zwiftinsider_route0B6_
FNDA:0,_RNCNvMNtCs6l7Ma75WKx0_17zwift_race_finder15route_discoveryNtB4_14RouteDiscovery24parse_zwiftinsider_routes0_0B6_
FNDA:0,_RNCNvMNtCs6l7Ma75WKx0_17zwift_race_finder15route_discoveryNtB4_14RouteDiscovery24parse_zwiftinsider_routes1_0B6_
FNDA:0,_RNCNvMNtCs6l7Ma75WKx0_17zwift_race_finder15route_discoveryNtB4_14RouteDiscovery24parse_zwiftinsider_routes2_0B6_
FNDA:0,_RNCNvMNtCs6l7Ma75WKx0_17zwift_race_finder15route_discoveryNtB4_14RouteDiscovery24parse_zwiftinsider_routes3_0B6_
FNDA:0,_RNCNvMNtCs6l7Ma75WKx0_17zwift_race_finder15route_discoveryNtB4_14RouteDiscovery24parse_zwiftinsider_routes4_0B6_
FNDA:0,_RNCNvMNtCs6l7Ma75WKx0_17zwift_race_finder15route_discoveryNtB4_14RouteDiscovery24parse_zwiftinsider_routes5_0B6_
FNDA:0,_RNCNvMNtCs6l7Ma75WKx0_17zwift_race_finder15route_discoveryNtB4_14RouteDiscovery24parse_zwiftinsider_routes6_0B6_
FNDA:0,_RNCNvMNtCs6l7Ma75WKx0_17zwift_race_finder15route_discoveryNtB4_14RouteDiscovery24parse_zwiftinsider_routes7_0B6_
FNDA:0,_RNCNvMNtCs6l7Ma75WKx0_17zwift_race_finder15route_discoveryNtB4_14RouteDiscovery24parse_zwiftinsider_routes8_0B6_
FNDA:0,_RNCNvMNtCs6l7Ma75WKx0_17zwift_race_finder15route_discoveryNtB4_14RouteDiscovery24parse_zwiftinsider_routes9_0B6_
FNDA:0,_RNCNvMNtCs6l7Ma75WKx0_17zwift_race_finder15route_discoveryNtB4_14RouteDiscovery24parse_zwiftinsider_routes_0B6_
FNDA:0,_RNCNCNvMNtCs2felTZli3Ur_17zwift_race_finder15route_discoveryNtB6_14RouteDiscovery19search_whatsonzwift00B8_
FNDA:0,_RNCNCNvMNtCs2felTZli3Ur_17zwift_race_finder15route_discoveryNtB6_14RouteDiscovery19search_zwiftinsider00B8_
FNDA:0,_RNCNvMNtCs2felTZli3Ur_17zwift_race_finder15route_discoveryNtB4_14RouteDiscovery14discover_route0B6_
FNDA:0,_RNCNvMNtCs2felTZli3Ur_17zwift_race_finder15route_discoveryNtB4_14RouteDiscovery17format_world_name0B6_
FNDA:0,_RNCNvMNtCs2felTZli3Ur_17zwift_race_finder15route_discoveryNtB4_14RouteDiscovery19search_whatsonzwift0B6_
FNDA:0,_RNCNvMNtCs2felTZli3Ur_17zwift_race_finder15route_discoveryNtB4_14RouteDiscovery19search_zwiftinsider0B6_
FNDA:0,_RNCNvMNtCs2felTZli3Ur_17zwift_race_finder15route_discoveryNtB4_14RouteDiscovery24parse_whatsonzwift_route0B6_
FNDA:0,_RNCNvMNtCs2felTZli3Ur_17zwift_race_finder15route_discoveryNtB4_14RouteDiscovery24parse_whatsonzwift_routes0_0B6_
FNDA:0,_RNCNvMNtCs2felTZli3Ur_17zwift_race_finder15route_discoveryNtB4_14RouteDiscovery24parse_whatsonzwift_routes1_0B6_
FNDA:0,_RNCNvMNtCs2felTZli3Ur_17zwift_race_finder15route_discoveryNtB4_14RouteDiscovery24parse_whatsonzwift_routes2_0B6_
FNDA:0,_RNCNvMNtCs2felTZli3Ur_17zwift_race_finder15route_discoveryNtB4_14RouteDiscovery24parse_whatsonzwift_routes3_0B6_
FNDA:0,_RNCNvMNtCs2felTZli3Ur_17zwift_race_finder15route_discoveryNtB4_14RouteDiscovery24parse_whatsonzwift_routes4_0B6_
FNDA:0,_RNCNvMNtCs2felTZli3Ur_17zwift_race_finder15route_discoveryNtB4_14RouteDiscovery24parse_whatsonzwift_routes5_0B6_
FNDA:0,_RNCNvMNtCs2felTZli3Ur_17zwift_race_finder15route_discoveryNtB4_14RouteDiscovery24parse_whatsonzwift_routes6_0B6_
FNDA:0,_RNCNvMNtCs2felTZli3Ur_17zwift_race_finder15route_discoveryNtB4_14RouteDiscovery24parse_whatsonzwift_routes7_0B6_
FNDA:0,_RNCNvMNtCs2felTZli3Ur_17zwift_race_finder15route_discoveryNtB4_14RouteDiscovery24parse_whatsonzwift_routes8_0B6_
FNDA:0,_RNCNvMNtCs2felTZli3Ur_17zwift_race_finder15route_discoveryNtB4_14RouteDiscovery24parse_whatsonzwift_routes9_0B6_
FNDA:0,_RNCNvMNtCs2felTZli3Ur_17zwift_race_finder15route_discoveryNtB4_14RouteDiscovery24parse_whatsonzwift_routes_0B6_
FNDA:0,_RNCNvMNtCs2felTZli3Ur_17zwift_race_finder15route_discoveryNtB4_14RouteDiscovery24parse_whatsonzwift_routesa_0B6_
FNDA:0,_RNCNvMNtCs2felTZli3Ur_17zwift_race_finder15route_discoveryNtB4_14RouteDiscovery24parse_whatsonzwift_routesb_0B6_
FNDA:0,_RNCNvMNtCs2felTZli3Ur_17zwift_race_finder15route_discoveryNtB4_14RouteDiscovery24parse_zwiftinsider_route0B6_
FNDA:0,_RNCNvMNtCs2felTZli3Ur_17zwift_race_finder15route_discoveryNtB4_14RouteDiscovery24parse_zwiftinsider_routes0_0B6_
FNDA:0,_RNCNvMNtCs2felTZli3Ur_17zwift_race_finder15route_discoveryNtB4_14RouteDiscovery24parse_zwiftinsider_routes1_0B6_
FNDA:0,_RNCNvMNtCs2felTZli3Ur_17zwift_race_finder15route_discoveryNtB4_14RouteDiscovery24parse_zwiftinsider_routes2_0B6_
FNDA:0,_RNCNvMNtCs2felTZli3Ur_17zwift_race_finder15route_discoveryNtB4_14RouteDiscovery24parse_zwiftinsider_routes3_0B6_
FNDA:0,_RNCNvMNtCs2felTZli3Ur_17zwift_race_finder15route_discoveryNtB4_14RouteDiscovery24parse_zwiftinsider_routes4_0B6_
FNDA:0,_RNCNvMNtCs2felTZli3Ur_17zwift_race_finder15route_discoveryNtB4_14RouteDiscovery24parse_zwiftinsider_routes5_0B6_
FNDA:0,_RNCNvMNtCs2felTZli3Ur_17zwift_race_finder15route_discoveryNtB4_14RouteDiscovery24parse_zwiftinsider_routes6_0B6_
FNDA:0,_RNCNvMNtCs2felTZli3Ur_17zwift_race_finder15route_discoveryNtB4_14RouteDiscovery24parse_zwiftinsider_routes7_0B6_
FNDA:0,_RNCNvMNtCs2felTZli3Ur_17zwift_race_finder15route_discoveryNtB4_14RouteDiscovery24parse_zwiftinsider_routes8_0B6_
FNDA:0,_RNCNvMNtCs2felTZli3Ur_17zwift_race_finder15route_discoveryNtB4_14RouteDiscovery24parse_zwiftinsider_routes9_0B6_
FNDA:0,_RNCNvMNtCs2felTZli3Ur_17zwift_race_finder15route_discoveryNtB4_14RouteDiscovery24parse_zwiftinsider_routes_0B6_
FNDA:0,_RNvMNtCs2felTZli3Ur_17zwift_race_finder15route_discoveryNtB2_14RouteDiscovery14discover_route
FNDA:0,_RNvMNtCs2felTZli3Ur_17zwift_race_finder15route_discoveryNtB2_14RouteDiscovery17format_world_name
FNDA:0,_RNvMNtCs2felTZli3Ur_17zwift_race_finder15route_discoveryNtB2_14RouteDiscovery18extract_route_name
FNDA:0,_RNvMNtCs2felTZli3Ur_17zwift_race_finder15route_discoveryNtB2_14RouteDiscovery19search_whatsonzwift
FNDA:0,_RNvMNtCs2felTZli3Ur_17zwift_race_finder15route_discoveryNtB2_14RouteDiscovery19search_zwiftinsider
FNDA:0,_RNvMNtCs2felTZli3Ur_17zwift_race_finder15route_discoveryNtB2_14RouteDiscovery24parse_whatsonzwift_route
FNDA:0,_RNvMNtCs2felTZli3Ur_17zwift_race_finder15route_discoveryNtB2_14RouteDiscovery24parse_zwiftinsider_route
FNDA:8,_RNvMNtCs2felTZli3Ur_17zwift_race_finder15route_discoveryNtB2_14RouteDiscovery28detect_world_from_event_name
FNDA:2,_RNvMNtCs2felTZli3Ur_17zwift_race_finder15route_discoveryNtB2_14RouteDiscovery3new
FNDA:6,_RNvNtCs2felTZli3Ur_17zwift_race_finder15route_discovery28parse_route_from_description
FNDA:1,_RNvNtNtCs2felTZli3Ur_17zwift_race_finder15route_discovery5testss_33test_detect_world_from_event_name
FNDA:1,_RNvNtNtCs2felTZli3Ur_17zwift_race_finder15route_discovery5testss_33test_parse_route_from_description
FNDA:1,_RNvNtNtCs2felTZli3Ur_17zwift_race_finder15route_discovery5testss_35test_route_discovery_initialization
FNDA:1,_RNCNvNtNtCs2felTZli3Ur_17zwift_race_finder15route_discovery5testss_35test_route_discovery_initialization0B7_
FNF:46
FNH:7
DA:40,4
DA:41,4
DA:42,4
DA:43,4
DA:44,4
DA:46,4
DA:47,4
DA:48,4
DA:49,4
DA:50,4
DA:53,0
DA:56,0
DA:57,0
DA:58,0
DA:59,0
DA:61,0
DA:63,0
DA:67,0
DA:69,0
DA:70,0
DA:71,0
DA:72,0
DA:75,0
DA:77,0
DA:78,0
DA:79,0
DA:80,0
DA:83,0
DA:84,0
DA:85,0
DA:86,0
DA:87,0
DA:90,0
DA:91,0
DA:92,0
DA:93,0
DA:94,0
DA:95,0
DA:96,0
DA:97,0
DA:98,0
DA:99,0
DA:100,0
DA:101,0
DA:102,0
DA:103,0
DA:104,0
DA:105,0
DA:107,0
DA:109,0
DA:110,0
DA:111,0
DA:112,0
DA:113,0
DA:114,0
DA:115,0
DA:116,0
DA:117,0
DA:118,0
DA:119,0
DA:121,0
DA:122,0
DA:123,0
DA:126,0
DA:128,0
DA:130,0
DA:131,0
DA:132,0
DA:133,0
DA:135,0
DA:139,0
DA:140,0
DA:143,16
DA:144,16
DA:145,16
DA:146,16
DA:147,16
DA:148,4
DA:149,12
DA:150,12
DA:151,12
DA:152,2
DA:153,10
DA:154,10
DA:155,10
DA:156,2
DA:157,8
DA:158,8
DA:159,8
DA:160,2
DA:161,6
DA:162,6
DA:163,6
DA:164,0
DA:165,6
DA:166,6
DA:167,6
DA:168,0
DA:169,6
DA:170,6
DA:171,6
DA:172,0
DA:173,6
DA:174,6
DA:175,6
DA:176,0
DA:177,6
DA:178,6
DA:179,6
DA:180,0
DA:181,6
DA:182,6
DA:183,6
DA:184,6
DA:185,4
DA:186,4
DA:187,2
DA:188,2
DA:189,2
DA:190,2
DA:192,0
DA:193,2
DA:194,2
DA:195,2
DA:196,16
DA:199,0
DA:200,0
DA:203,0
DA:204,0
DA:206,0
DA:210,0
DA:211,0
DA:212,0
DA:213,0
DA:215,0
DA:218,0
DA:219,0
DA:222,0
DA:223,0
DA:224,0
DA:225,0
DA:228,0
DA:229,0
DA:230,0
DA:231,0
DA:232,0
DA:233,0
DA:235,0
DA:236,0
DA:237,0
DA:240,0
DA:243,0
DA:249,0
DA:250,0
DA:251,0
DA:252,0
DA:253,0
DA:255,0
DA:259,0
DA:260,0
DA:261,0
DA:262,0
DA:263,0
DA:266,0
DA:267,0
DA:268,0
DA:269,0
DA:270,0
DA:271,0
DA:274,0
DA:275,0
DA:276,0
DA:277,0
DA:278,0
DA:281,0
DA:282,0
DA:283,0
DA:284,0
DA:285,0
DA:288,0
DA:289,0
DA:290,0
DA:291,0
DA:293,0
DA:296,0
DA:297,0
DA:298,0
DA:299,0
DA:300,0
DA:301,0
DA:302,0
DA:303,0
DA:304,0
DA:305,0
DA:306,0
DA:309,0
DA:310,0
DA:311,0
DA:312,0
DA:313,0
DA:314,0
DA:315,0
DA:316,0
DA:317,0
DA:318,0
DA:319,0
DA:320,0
DA:321,0
DA:322,0
DA:323,0
DA:324,0
DA:326,0
DA:327,0
DA:328,0
DA:331,0
DA:332,0
DA:333,0
DA:335,0
DA:339,0
DA:340,0
DA:341,0
DA:344,0
DA:345,0
DA:346,0
DA:348,0
DA:349,0
DA:350,0
DA:351,0
DA:352,0
DA:353,0
DA:354,0
DA:356,0
DA:357,0
DA:358,0
DA:359,0
DA:360,0
DA:361,0
DA:362,0
DA:363,0
DA:366,0
DA:367,0
DA:370,0
DA:375,0
DA:376,0
DA:377,0
DA:378,0
DA:379,0
DA:382,0
DA:383,0
DA:384,0
DA:385,0
DA:386,0
DA:387,0
DA:390,0
DA:391,0
DA:392,0
DA:393,0
DA:394,0
DA:397,0
DA:398,0
DA:399,0
DA:400,0
DA:401,0
DA:404,0
DA:405,0
DA:406,0
DA:407,0
DA:409,0
DA:412,0
DA:413,0
DA:414,0
DA:415,0
DA:416,0
DA:417,0
DA:418,0
DA:419,0
DA:420,0
DA:433,14
DA:442,14
DA:443,14
DA:444,2
DA:445,2
DA:446,2
DA:447,2
DA:448,2
DA:449,2
DA:450,0
DA:451,0
DA:452,12
DA:455,12
DA:456,12
DA:457,2
DA:458,2
DA:460,2
DA:461,2
DA:462,2
DA:463,2
DA:464,2
DA:465,2
DA:466,2
DA:467,2
DA:468,0
DA:469,0
DA:470,10
DA:473,10
DA:474,10
DA:475,2
DA:476,2
DA:478,2
DA:479,2
DA:480,0
DA:481,2
DA:482,2
DA:483,2
DA:484,2
DA:485,2
DA:486,0
DA:487,0
DA:488,8
DA:491,8
DA:492,8
DA:493,2
DA:494,2
DA:495,2
DA:496,2
DA:497,2
DA:498,2
DA:499,0
DA:500,0
DA:501,6
DA:504,6
DA:505,6
DA:506,2
DA:507,2
DA:508,2
DA:509,2
DA:510,2
DA:511,0
DA:512,4
DA:514,4
DA:515,14
DA:522,2
DA:523,2
DA:524,2
DA:525,2
DA:528,2
DA:529,2
DA:530,2
DA:531,2
DA:532,2
DA:533,2
DA:534,2
DA:537,2
DA:538,2
DA:539,2
DA:540,2
DA:541,2
DA:544,2
DA:545,2
DA:546,2
DA:547,2
DA:548,2
DA:551,2
DA:552,2
DA:553,2
DA:554,2
DA:555,2
DA:558,2
DA:559,2
DA:560,2
DA:561,2
DA:562,2
DA:565,2
DA:566,2
DA:567,2
DA:570,2
DA:571,2
DA:572,2
DA:573,2
DA:574,2
DA:575,2
DA:576,2
DA:577,2
DA:578,2
DA:579,2
DA:580,2
DA:581,2
DA:584,2
DA:585,2
DA:586,2
DA:587,2
DA:590,2
DA:591,2
DA:592,2
DA:593,2
DA:596,2
DA:597,2
DA:598,2
DA:599,2
DA:602,2
DA:603,2
DA:604,2
DA:605,2
DA:606,2
DA:607,2
DA:608,2
DA:609,2
DA:612,2
DA:613,2
DA:614,2
DA:615,2
DA:616,2
BRF:0
BRH:0
LF:448
LH:185
end_of_record
SF:/home/jack/tools/rust/zwift-race-finder/src/secure_storage.rs
FN:146,_RNCNvMNtCs1kDST8A3VsF_17zwift_race_finder14secure_storageNtB4_13SecureStorage13load_from_env0B6_
FN:182,_RNCNvMNtCs1kDST8A3VsF_17zwift_race_finder14secure_storageNtB4_13SecureStorage14load_from_file0B6_
FN:88,_RNCNvMNtCs1kDST8A3VsF_17zwift_race_finder14secure_storageNtB4_13SecureStorage15get_config_path0B6_
FN:215,_RNvMNtCs1kDST8A3VsF_17zwift_race_finder14secure_storageNtB2_13SecureStorage12backend_info
FN:188,_RNvMNtCs1kDST8A3VsF_17zwift_race_finder14secure_storageNtB2_13SecureStorage12save_to_file
FN:130,_RNvMNtCs1kDST8A3VsF_17zwift_race_finder14secure_storageNtB2_13SecureStorage13load_from_env
FN:57,_RNvMNtCs1kDST8A3VsF_17zwift_race_finder14secure_storageNtB2_13SecureStorage14detect_backend
FN:180,_RNvMNtCs1kDST8A3VsF_17zwift_race_finder14secure_storageNtB2_13SecureStorage14load_from_file
FN:79,_RNvMNtCs1kDST8A3VsF_17zwift_race_finder14secure_storageNtB2_13SecureStorage15get_config_path
FN:175,_RNvMNtCs1kDST8A3VsF_17zwift_race_finder14secure_storageNtB2_13SecureStorage15save_to_keyring
FN:161,_RNvMNtCs1kDST8A3VsF_17zwift_race_finder14secure_storageNtB2_13SecureStorage17load_from_keyring
FN:97,_RNvMNtCs1kDST8A3VsF_17zwift_race_finder14secure_storageNtB2_13SecureStorage18load_strava_tokens
FN:106,_RNvMNtCs1kDST8A3VsF_17zwift_race_finder14secure_storageNtB2_13SecureStorage18save_strava_tokens
FN:224,_RNvMNtCs1kDST8A3VsF_17zwift_race_finder14secure_storageNtB2_13SecureStorage19tokens_need_refresh
FN:46,_RNvMNtCs1kDST8A3VsF_17zwift_race_finder14secure_storageNtB2_13SecureStorage3new
FN:231,_RNvNtCs1kDST8A3VsF_17zwift_race_finder14secure_storage14migrate_tokens
FN:88,_RNCNvMNtCs2felTZli3Ur_17zwift_race_finder14secure_storageNtB4_13SecureStorage15get_config_path0B6_
FN:215,_RNvMNtCs2felTZli3Ur_17zwift_race_finder14secure_storageNtB2_13SecureStorage12backend_info
FN:57,_RNvMNtCs2felTZli3Ur_17zwift_race_finder14secure_storageNtB2_13SecureStorage14detect_backend
FN:79,_RNvMNtCs2felTZli3Ur_17zwift_race_finder14secure_storageNtB2_13SecureStorage15get_config_path
FN:46,_RNvMNtCs2felTZli3Ur_17zwift_race_finder14secure_storageNtB2_13SecureStorage3new
FN:231,_RNvNtCs2felTZli3Ur_17zwift_race_finder14secure_storage14migrate_tokens
FN:188,_RNvMNtCs2felTZli3Ur_17zwift_race_finder14secure_storageNtB2_13SecureStorage12save_to_file
FN:130,_RNvMNtCs2felTZli3Ur_17zwift_race_finder14secure_storageNtB2_13SecureStorage13load_from_env
FN:180,_RNvMNtCs2felTZli3Ur_17zwift_race_finder14secure_storageNtB2_13SecureStorage14load_from_file
FN:175,_RNvMNtCs2felTZli3Ur_17zwift_race_finder14secure_storageNtB2_13SecureStorage15save_to_keyring
FN:161,_RNvMNtCs2felTZli3Ur_17zwift_race_finder14secure_storageNtB2_13SecureStorage17load_from_keyring
FN:97,_RNvMNtCs2felTZli3Ur_17zwift_race_finder14secure_storageNtB2_13SecureStorage18load_strava_tokens
FN:106,_RNvMNtCs2felTZli3Ur_17zwift_race_finder14secure_storageNtB2_13SecureStorage18save_strava_tokens
FN:224,_RNvMNtCs2felTZli3Ur_17zwift_race_finder14secure_storageNtB2_13SecureStorage19tokens_need_refresh
FN:146,_RNCNvMNtCs2felTZli3Ur_17zwift_race_finder14secure_storageNtB4_13SecureStorage13load_from_env0B6_
FN:182,_RNCNvMNtCs2felTZli3Ur_17zwift_race_finder14secure_storageNtB4_13SecureStorage14load_from_file0B6_
FN:295,_RNvNtNtCs2felTZli3Ur_17zwift_race_finder14secure_storage5testss_16test_env_storage
FN:259,_RNvNtNtCs2felTZli3Ur_17zwift_race_finder14secure_storage5testss_17test_file_storage
FN:324,_RNvNtNtCs2felTZli3Ur_17zwift_race_finder14secure_storage5testss_24test_token_refresh_check
FNDA:0,_RNCNvMNtCs1kDST8A3VsF_17zwift_race_finder14secure_storageNtB4_13SecureStorage13load_from_env0B6_
FNDA:0,_RNCNvMNtCs1kDST8A3VsF_17zwift_race_finder14secure_storageNtB4_13SecureStorage14load_from_file0B6_
FNDA:0,_RNCNvMNtCs1kDST8A3VsF_17zwift_race_finder14secure_storageNtB4_13SecureStorage15get_config_path0B6_
FNDA:0,_RNvMNtCs1kDST8A3VsF_17zwift_race_finder14secure_storageNtB2_13SecureStorage12backend_info
FNDA:0,_RNvMNtCs1kDST8A3VsF_17zwift_race_finder14secure_storageNtB2_13SecureStorage12save_to_file
FNDA:0,_RNvMNtCs1kDST8A3VsF_17zwift_race_finder14secure_storageNtB2_13SecureStorage13load_from_env
FNDA:0,_RNvMNtCs1kDST8A3VsF_17zwift_race_finder14secure_storageNtB2_13SecureStorage14detect_backend
FNDA:0,_RNvMNtCs1kDST8A3VsF_17zwift_race_finder14secure_storageNtB2_13SecureStorage14load_from_file
FNDA:0,_RNvMNtCs1kDST8A3VsF_17zwift_race_finder14secure_storageNtB2_13SecureStorage15get_config_path
FNDA:0,_RNvMNtCs1kDST8A3VsF_17zwift_race_finder14secure_storageNtB2_13SecureStorage15save_to_keyring
FNDA:0,_RNvMNtCs1kDST8A3VsF_17zwift_race_finder14secure_storageNtB2_13SecureStorage17load_from_keyring
FNDA:0,_RNvMNtCs1kDST8A3VsF_17zwift_race_finder14secure_storageNtB2_13SecureStorage18load_strava_tokens
FNDA:0,_RNvMNtCs1kDST8A3VsF_17zwift_race_finder14secure_storageNtB2_13SecureStorage18save_strava_tokens
FNDA:0,_RNvMNtCs1kDST8A3VsF_17zwift_race_finder14secure_storageNtB2_13SecureStorage19tokens_need_refresh
FNDA:0,_RNvMNtCs1kDST8A3VsF_17zwift_race_finder14secure_storageNtB2_13SecureStorage3new
FNDA:0,_RNvNtCs1kDST8A3VsF_17zwift_race_finder14secure_storage14migrate_tokens
FNDA:0,_RNCNvMNtCs2felTZli3Ur_17zwift_race_finder14secure_storageNtB4_13SecureStorage15get_config_path0B6_
FNDA:0,_RNvMNtCs2felTZli3Ur_17zwift_race_finder14secure_storageNtB2_13SecureStorage12backend_info
FNDA:0,_RNvMNtCs2felTZli3Ur_17zwift_race_finder14secure_storageNtB2_13SecureStorage14detect_backend
FNDA:0,_RNvMNtCs2felTZli3Ur_17zwift_race_finder14secure_storageNtB2_13SecureStorage15get_config_path
FNDA:0,_RNvMNtCs2felTZli3Ur_17zwift_race_finder14secure_storageNtB2_13SecureStorage3new
FNDA:0,_RNvNtCs2felTZli3Ur_17zwift_race_finder14secure_storage14migrate_tokens
FNDA:1,_RNvMNtCs2felTZli3Ur_17zwift_race_finder14secure_storageNtB2_13SecureStorage12save_to_file
FNDA:1,_RNvMNtCs2felTZli3Ur_17zwift_race_finder14secure_storageNtB2_13SecureStorage13load_from_env
FNDA:1,_RNvMNtCs2felTZli3Ur_17zwift_race_finder14secure_storageNtB2_13SecureStorage14load_from_file
FNDA:0,_RNvMNtCs2felTZli3Ur_17zwift_race_finder14secure_storageNtB2_13SecureStorage15save_to_keyring
FNDA:0,_RNvMNtCs2felTZli3Ur_17zwift_race_finder14secure_storageNtB2_13SecureStorage17load_from_keyring
FNDA:2,_RNvMNtCs2felTZli3Ur_17zwift_race_finder14secure_storageNtB2_13SecureStorage18load_strava_tokens
FNDA:1,_RNvMNtCs2felTZli3Ur_17zwift_race_finder14secure_storageNtB2_13SecureStorage18save_strava_tokens
FNDA:2,_RNvMNtCs2felTZli3Ur_17zwift_race_finder14secure_storageNtB2_13SecureStorage19tokens_need_refresh
FNDA:1,_RNCNvMNtCs2felTZli3Ur_17zwift_race_finder14secure_storageNtB4_13SecureStorage13load_from_env0B6_
FNDA:0,_RNCNvMNtCs2felTZli3Ur_17zwift_race_finder14secure_storageNtB4_13SecureStorage14load_from_file0B6_
FNDA:1,_RNvNtNtCs2felTZli3Ur_17zwift_race_finder14secure_storage5testss_16test_env_storage
FNDA:1,_RNvNtNtCs2felTZli3Ur_17zwift_race_finder14secure_storage5testss_17test_file_storage
FNDA:1,_RNvNtNtCs2felTZli3Ur_17zwift_race_finder14secure_storage5testss_24test_token_refresh_check
FNF:19
FNH:10
DA:46,0
DA:47,0
DA:48,0
DA:49,0
DA:50,0
DA:51,0
DA:52,0
DA:53,0
DA:54,0
DA:57,0
DA:58,0
DA:59,0
DA:60,0
DA:61,0
DA:62,0
DA:63,0
DA:64,0
DA:65,0
DA:66,0
DA:67,0
DA:68,0
DA:69,0
DA:70,0
DA:71,0
DA:72,0
DA:73,0
DA:74,0
DA:75,0
DA:76,0
DA:79,0
DA:80,0
DA:81,0
DA:82,0
DA:83,0
DA:84,0
DA:85,0
DA:86,0
DA:87,0
DA:88,0
DA:89,0
DA:90,0
DA:91,0
DA:92,0
DA:93,0
DA:94,0
DA:97,2
DA:98,2
DA:99,1
DA:100,0
DA:101,1
DA:103,2
DA:106,1
DA:107,1
DA:110,0
DA:111,0
DA:112,0
DA:113,0
DA:114,0
DA:115,0
DA:116,0
DA:117,0
DA:118,0
DA:119,0
DA:120,0
DA:121,0
DA:122,0
DA:124,0
DA:125,1
DA:127,1
DA:130,1
DA:131,1
DA:132,1
DA:133,1
DA:134,1
DA:135,1
DA:136,1
DA:137,1
DA:138,1
DA:139,1
DA:140,1
DA:141,1
DA:142,1
DA:143,1
DA:144,1
DA:145,1
DA:146,1
DA:147,1
DA:148,1
DA:161,0
DA:162,0
DA:163,0
DA:175,0
DA:176,0
DA:177,0
DA:180,1
DA:181,1
DA:182,1
DA:183,1
DA:184,1
DA:185,1
DA:188,1
DA:190,1
DA:191,1
DA:192,0
DA:195,1
DA:196,1
DA:197,1
DA:201,1
DA:202,1
DA:203,1
DA:204,1
DA:205,1
DA:209,1
DA:211,1
DA:212,1
DA:215,0
DA:216,0
DA:217,0
DA:218,0
DA:219,0
DA:221,0
DA:224,2
DA:225,2
DA:226,2
DA:227,2
DA:231,0
DA:232,0
DA:233,0
DA:234,0
DA:235,0
DA:238,0
DA:239,0
DA:242,0
DA:245,0
DA:246,0
DA:247,0
DA:248,0
DA:249,0
DA:250,0
DA:251,0
DA:259,1
DA:260,1
DA:261,1
DA:262,1
DA:263,1
DA:264,1
DA:265,1
DA:266,1
DA:267,1
DA:268,1
DA:269,1
DA:270,1
DA:271,1
DA:272,1
DA:273,1
DA:274,1
DA:275,1
DA:276,1
DA:277,1
DA:278,1
DA:279,1
DA:280,1
DA:281,1
DA:282,1
DA:283,1
DA:287,1
DA:288,1
DA:289,1
DA:290,1
DA:292,1
DA:295,1
DA:296,1
DA:297,1
DA:298,1
DA:299,1
DA:300,1
DA:301,1
DA:302,1
DA:303,1
DA:304,1
DA:305,1
DA:306,1
DA:307,1
DA:308,1
DA:309,1
DA:310,1
DA:311,1
DA:312,1
DA:315,1
DA:316,1
DA:317,1
DA:318,1
DA:319,1
DA:320,1
DA:321,1
DA:324,1
DA:325,1
DA:326,1
DA:327,1
DA:328,1
DA:329,1
DA:330,1
DA:331,1
DA:332,1
DA:333,1
DA:334,1
DA:336,1
DA:337,1
DA:338,1
DA:339,1
DA:340,1
DA:341,1
DA:342,1
BRF:0
BRH:0
LF:217
LH:126
end_of_record